ARM GAS  C:\Users\Dell\AppData\Local\Temp\ccWrsJ8h.s 			page 1


   1              		.syntax unified
   2              		.cpu cortex-m3
   3              		.fpu softvfp
   4              		.eabi_attribute 20, 1
   5              		.eabi_attribute 21, 1
   6              		.eabi_attribute 23, 3
   7              		.eabi_attribute 24, 1
   8              		.eabi_attribute 25, 1
   9              		.eabi_attribute 26, 1
  10              		.eabi_attribute 30, 1
  11              		.eabi_attribute 34, 1
  12              		.eabi_attribute 18, 4
  13              		.thumb
  14              		.syntax unified
  15              		.file	"ADC_SAR_X.c"
  16              		.text
  17              	.Ltext0:
  18              		.cfi_sections	.debug_frame
  19              		.section	.text.ADC_SAR_X_CalcGain,"ax",%progbits
  20              		.align	2
  21              		.thumb
  22              		.thumb_func
  23              		.type	ADC_SAR_X_CalcGain, %function
  24              	ADC_SAR_X_CalcGain:
  25              	.LFB10:
  26              		.file 1 "Generated_Source\\PSoC5\\ADC_SAR_X.c"
   1:Generated_Source\PSoC5/ADC_SAR_X.c **** /*******************************************************************************
   2:Generated_Source\PSoC5/ADC_SAR_X.c **** * File Name: ADC_SAR_X.c
   3:Generated_Source\PSoC5/ADC_SAR_X.c **** * Version 3.10
   4:Generated_Source\PSoC5/ADC_SAR_X.c **** *
   5:Generated_Source\PSoC5/ADC_SAR_X.c **** * Description:
   6:Generated_Source\PSoC5/ADC_SAR_X.c **** *  This file provides the source code to the API for the Successive
   7:Generated_Source\PSoC5/ADC_SAR_X.c **** *  approximation ADC Component.
   8:Generated_Source\PSoC5/ADC_SAR_X.c **** *
   9:Generated_Source\PSoC5/ADC_SAR_X.c **** * Note:
  10:Generated_Source\PSoC5/ADC_SAR_X.c **** *
  11:Generated_Source\PSoC5/ADC_SAR_X.c **** ********************************************************************************
  12:Generated_Source\PSoC5/ADC_SAR_X.c **** * Copyright 2008-2015, Cypress Semiconductor Corporation.  All rights reserved.
  13:Generated_Source\PSoC5/ADC_SAR_X.c **** * You may use this file only in accordance with the license, terms, conditions,
  14:Generated_Source\PSoC5/ADC_SAR_X.c **** * disclaimers, and limitations in the end user license agreement accompanying
  15:Generated_Source\PSoC5/ADC_SAR_X.c **** * the software package with which this file was provided.
  16:Generated_Source\PSoC5/ADC_SAR_X.c **** *******************************************************************************/
  17:Generated_Source\PSoC5/ADC_SAR_X.c **** 
  18:Generated_Source\PSoC5/ADC_SAR_X.c **** #include "CyLib.h"
  19:Generated_Source\PSoC5/ADC_SAR_X.c **** #include "ADC_SAR_X.h"
  20:Generated_Source\PSoC5/ADC_SAR_X.c **** 
  21:Generated_Source\PSoC5/ADC_SAR_X.c **** #if(ADC_SAR_X_DEFAULT_INTERNAL_CLK)
  22:Generated_Source\PSoC5/ADC_SAR_X.c ****     #include "ADC_SAR_X_theACLK.h"
  23:Generated_Source\PSoC5/ADC_SAR_X.c **** #endif /* End ADC_SAR_X_DEFAULT_INTERNAL_CLK */
  24:Generated_Source\PSoC5/ADC_SAR_X.c **** 
  25:Generated_Source\PSoC5/ADC_SAR_X.c **** 
  26:Generated_Source\PSoC5/ADC_SAR_X.c **** /***************************************
  27:Generated_Source\PSoC5/ADC_SAR_X.c **** * Forward function references
  28:Generated_Source\PSoC5/ADC_SAR_X.c **** ***************************************/
  29:Generated_Source\PSoC5/ADC_SAR_X.c **** static void ADC_SAR_X_CalcGain(uint8 resolution);
  30:Generated_Source\PSoC5/ADC_SAR_X.c **** 
  31:Generated_Source\PSoC5/ADC_SAR_X.c **** 
ARM GAS  C:\Users\Dell\AppData\Local\Temp\ccWrsJ8h.s 			page 2


  32:Generated_Source\PSoC5/ADC_SAR_X.c **** /***************************************
  33:Generated_Source\PSoC5/ADC_SAR_X.c **** * Global data allocation
  34:Generated_Source\PSoC5/ADC_SAR_X.c **** ***************************************/
  35:Generated_Source\PSoC5/ADC_SAR_X.c **** uint8 ADC_SAR_X_initVar = 0u;
  36:Generated_Source\PSoC5/ADC_SAR_X.c **** volatile int16 ADC_SAR_X_offset;
  37:Generated_Source\PSoC5/ADC_SAR_X.c **** volatile int16 ADC_SAR_X_countsPerVolt;     /* Obsolete Gain compensation */
  38:Generated_Source\PSoC5/ADC_SAR_X.c **** volatile int32 ADC_SAR_X_countsPer10Volt;   /* Gain compensation */
  39:Generated_Source\PSoC5/ADC_SAR_X.c **** volatile int16 ADC_SAR_X_shift;
  40:Generated_Source\PSoC5/ADC_SAR_X.c **** 
  41:Generated_Source\PSoC5/ADC_SAR_X.c **** 
  42:Generated_Source\PSoC5/ADC_SAR_X.c **** /*******************************************************************************
  43:Generated_Source\PSoC5/ADC_SAR_X.c **** * Function Name: ADC_SAR_X_Start
  44:Generated_Source\PSoC5/ADC_SAR_X.c **** ********************************************************************************
  45:Generated_Source\PSoC5/ADC_SAR_X.c **** *
  46:Generated_Source\PSoC5/ADC_SAR_X.c **** * Summary:
  47:Generated_Source\PSoC5/ADC_SAR_X.c **** *  This is the preferred method to begin component operation.
  48:Generated_Source\PSoC5/ADC_SAR_X.c **** *  ADC_SAR_X_Start() sets the initVar variable, calls the
  49:Generated_Source\PSoC5/ADC_SAR_X.c **** *  ADC_SAR_X_Init() function, and then calls the
  50:Generated_Source\PSoC5/ADC_SAR_X.c **** *  ADC_SAR_X_Enable() function.
  51:Generated_Source\PSoC5/ADC_SAR_X.c **** *
  52:Generated_Source\PSoC5/ADC_SAR_X.c **** * Parameters:
  53:Generated_Source\PSoC5/ADC_SAR_X.c **** *  None.
  54:Generated_Source\PSoC5/ADC_SAR_X.c **** *
  55:Generated_Source\PSoC5/ADC_SAR_X.c **** * Return:
  56:Generated_Source\PSoC5/ADC_SAR_X.c **** *  None.
  57:Generated_Source\PSoC5/ADC_SAR_X.c **** *
  58:Generated_Source\PSoC5/ADC_SAR_X.c **** * Global variables:
  59:Generated_Source\PSoC5/ADC_SAR_X.c **** *  The ADC_SAR_X_initVar variable is used to indicate when/if initial
  60:Generated_Source\PSoC5/ADC_SAR_X.c **** *  configuration of this component has happened. The variable is initialized to
  61:Generated_Source\PSoC5/ADC_SAR_X.c **** *  zero and set to 1 the first time ADC_Start() is called. This allows for
  62:Generated_Source\PSoC5/ADC_SAR_X.c **** *  component Re-Start without re-initialization in all subsequent calls to the
  63:Generated_Source\PSoC5/ADC_SAR_X.c **** *  ADC_SAR_X_Start() routine.
  64:Generated_Source\PSoC5/ADC_SAR_X.c **** *  If re-initialization of the component is required the variable should be set
  65:Generated_Source\PSoC5/ADC_SAR_X.c **** *  to zero before call of ADC_SAR_X_Start() routine, or the user may call
  66:Generated_Source\PSoC5/ADC_SAR_X.c **** *  ADC_SAR_X_Init() and ADC_SAR_X_Enable() as done in the
  67:Generated_Source\PSoC5/ADC_SAR_X.c **** *  ADC_SAR_X_Start() routine.
  68:Generated_Source\PSoC5/ADC_SAR_X.c **** *
  69:Generated_Source\PSoC5/ADC_SAR_X.c **** * Side Effect:
  70:Generated_Source\PSoC5/ADC_SAR_X.c **** *  If the initVar variable is already set, this function only calls the
  71:Generated_Source\PSoC5/ADC_SAR_X.c **** *  ADC_SAR_X_Enable() function.
  72:Generated_Source\PSoC5/ADC_SAR_X.c **** *
  73:Generated_Source\PSoC5/ADC_SAR_X.c **** *******************************************************************************/
  74:Generated_Source\PSoC5/ADC_SAR_X.c **** void ADC_SAR_X_Start(void)
  75:Generated_Source\PSoC5/ADC_SAR_X.c **** {
  76:Generated_Source\PSoC5/ADC_SAR_X.c **** 
  77:Generated_Source\PSoC5/ADC_SAR_X.c ****     /* If not Initialized then initialize all required hardware and software */
  78:Generated_Source\PSoC5/ADC_SAR_X.c ****     if(ADC_SAR_X_initVar == 0u)
  79:Generated_Source\PSoC5/ADC_SAR_X.c ****     {
  80:Generated_Source\PSoC5/ADC_SAR_X.c ****         ADC_SAR_X_Init();
  81:Generated_Source\PSoC5/ADC_SAR_X.c ****         ADC_SAR_X_initVar = 1u;
  82:Generated_Source\PSoC5/ADC_SAR_X.c ****     }
  83:Generated_Source\PSoC5/ADC_SAR_X.c ****     ADC_SAR_X_Enable();
  84:Generated_Source\PSoC5/ADC_SAR_X.c **** }
  85:Generated_Source\PSoC5/ADC_SAR_X.c **** 
  86:Generated_Source\PSoC5/ADC_SAR_X.c **** 
  87:Generated_Source\PSoC5/ADC_SAR_X.c **** /*******************************************************************************
  88:Generated_Source\PSoC5/ADC_SAR_X.c **** * Function Name: ADC_SAR_X_Init
ARM GAS  C:\Users\Dell\AppData\Local\Temp\ccWrsJ8h.s 			page 3


  89:Generated_Source\PSoC5/ADC_SAR_X.c **** ********************************************************************************
  90:Generated_Source\PSoC5/ADC_SAR_X.c **** *
  91:Generated_Source\PSoC5/ADC_SAR_X.c **** * Summary:
  92:Generated_Source\PSoC5/ADC_SAR_X.c **** *  Initialize component's parameters to the parameters set by user in the
  93:Generated_Source\PSoC5/ADC_SAR_X.c **** *  customizer of the component placed onto schematic. Usually called in
  94:Generated_Source\PSoC5/ADC_SAR_X.c **** *  ADC_SAR_X_Start().
  95:Generated_Source\PSoC5/ADC_SAR_X.c **** *
  96:Generated_Source\PSoC5/ADC_SAR_X.c **** * Parameters:
  97:Generated_Source\PSoC5/ADC_SAR_X.c **** *  None.
  98:Generated_Source\PSoC5/ADC_SAR_X.c **** *
  99:Generated_Source\PSoC5/ADC_SAR_X.c **** * Return:
 100:Generated_Source\PSoC5/ADC_SAR_X.c **** *  None.
 101:Generated_Source\PSoC5/ADC_SAR_X.c **** *
 102:Generated_Source\PSoC5/ADC_SAR_X.c **** * Global variables:
 103:Generated_Source\PSoC5/ADC_SAR_X.c **** *  The ADC_SAR_X_offset variable is initialized to 0.
 104:Generated_Source\PSoC5/ADC_SAR_X.c **** *
 105:Generated_Source\PSoC5/ADC_SAR_X.c **** *******************************************************************************/
 106:Generated_Source\PSoC5/ADC_SAR_X.c **** void ADC_SAR_X_Init(void)
 107:Generated_Source\PSoC5/ADC_SAR_X.c **** {
 108:Generated_Source\PSoC5/ADC_SAR_X.c **** 
 109:Generated_Source\PSoC5/ADC_SAR_X.c ****     /* This is only valid if there is an internal clock */
 110:Generated_Source\PSoC5/ADC_SAR_X.c ****     #if(ADC_SAR_X_DEFAULT_INTERNAL_CLK)
 111:Generated_Source\PSoC5/ADC_SAR_X.c ****         ADC_SAR_X_theACLK_SetMode(CYCLK_DUTY);
 112:Generated_Source\PSoC5/ADC_SAR_X.c ****     #endif /* End ADC_SAR_X_DEFAULT_INTERNAL_CLK */
 113:Generated_Source\PSoC5/ADC_SAR_X.c **** 
 114:Generated_Source\PSoC5/ADC_SAR_X.c ****     #if(ADC_SAR_X_IRQ_REMOVE == 0u)
 115:Generated_Source\PSoC5/ADC_SAR_X.c ****         /* Start and set interrupt vector */
 116:Generated_Source\PSoC5/ADC_SAR_X.c ****         CyIntSetPriority(ADC_SAR_X_INTC_NUMBER, ADC_SAR_X_INTC_PRIOR_NUMBER);
 117:Generated_Source\PSoC5/ADC_SAR_X.c ****         (void)CyIntSetVector(ADC_SAR_X_INTC_NUMBER, &ADC_SAR_X_ISR);
 118:Generated_Source\PSoC5/ADC_SAR_X.c ****     #endif   /* End ADC_SAR_X_IRQ_REMOVE */
 119:Generated_Source\PSoC5/ADC_SAR_X.c **** 
 120:Generated_Source\PSoC5/ADC_SAR_X.c ****     /* Enable IRQ mode*/
 121:Generated_Source\PSoC5/ADC_SAR_X.c ****     ADC_SAR_X_SAR_CSR1_REG |= ADC_SAR_X_SAR_IRQ_MASK_EN | ADC_SAR_X_SAR_IRQ_MODE_EDGE;
 122:Generated_Source\PSoC5/ADC_SAR_X.c **** 
 123:Generated_Source\PSoC5/ADC_SAR_X.c ****     /*Set SAR ADC resolution ADC */
 124:Generated_Source\PSoC5/ADC_SAR_X.c ****     ADC_SAR_X_SetResolution(ADC_SAR_X_DEFAULT_RESOLUTION);
 125:Generated_Source\PSoC5/ADC_SAR_X.c ****     ADC_SAR_X_offset = 0;
 126:Generated_Source\PSoC5/ADC_SAR_X.c **** }
 127:Generated_Source\PSoC5/ADC_SAR_X.c **** 
 128:Generated_Source\PSoC5/ADC_SAR_X.c **** 
 129:Generated_Source\PSoC5/ADC_SAR_X.c **** /*******************************************************************************
 130:Generated_Source\PSoC5/ADC_SAR_X.c **** * Function Name: ADC_SAR_X_Enable
 131:Generated_Source\PSoC5/ADC_SAR_X.c **** ********************************************************************************
 132:Generated_Source\PSoC5/ADC_SAR_X.c **** *
 133:Generated_Source\PSoC5/ADC_SAR_X.c **** * Summary:
 134:Generated_Source\PSoC5/ADC_SAR_X.c **** *  Enables the reference, clock and power for SAR ADC.
 135:Generated_Source\PSoC5/ADC_SAR_X.c **** *
 136:Generated_Source\PSoC5/ADC_SAR_X.c **** * Parameters:
 137:Generated_Source\PSoC5/ADC_SAR_X.c **** *  None.
 138:Generated_Source\PSoC5/ADC_SAR_X.c **** *
 139:Generated_Source\PSoC5/ADC_SAR_X.c **** * Return:
 140:Generated_Source\PSoC5/ADC_SAR_X.c **** *  None.
 141:Generated_Source\PSoC5/ADC_SAR_X.c **** *
 142:Generated_Source\PSoC5/ADC_SAR_X.c **** *******************************************************************************/
 143:Generated_Source\PSoC5/ADC_SAR_X.c **** void ADC_SAR_X_Enable(void)
 144:Generated_Source\PSoC5/ADC_SAR_X.c **** {
 145:Generated_Source\PSoC5/ADC_SAR_X.c ****     uint8 tmpReg;
ARM GAS  C:\Users\Dell\AppData\Local\Temp\ccWrsJ8h.s 			page 4


 146:Generated_Source\PSoC5/ADC_SAR_X.c ****     uint8 enableInterrupts;
 147:Generated_Source\PSoC5/ADC_SAR_X.c ****     enableInterrupts = CyEnterCriticalSection();
 148:Generated_Source\PSoC5/ADC_SAR_X.c **** 
 149:Generated_Source\PSoC5/ADC_SAR_X.c ****     /* Enable the SAR ADC block in Active Power Mode */
 150:Generated_Source\PSoC5/ADC_SAR_X.c ****     ADC_SAR_X_PWRMGR_SAR_REG |= ADC_SAR_X_ACT_PWR_SAR_EN;
 151:Generated_Source\PSoC5/ADC_SAR_X.c **** 
 152:Generated_Source\PSoC5/ADC_SAR_X.c ****      /* Enable the SAR ADC in Standby Power Mode*/
 153:Generated_Source\PSoC5/ADC_SAR_X.c ****     ADC_SAR_X_STBY_PWRMGR_SAR_REG |= ADC_SAR_X_STBY_PWR_SAR_EN;
 154:Generated_Source\PSoC5/ADC_SAR_X.c **** 
 155:Generated_Source\PSoC5/ADC_SAR_X.c ****     /* This is only valid if there is an internal clock */
 156:Generated_Source\PSoC5/ADC_SAR_X.c ****     #if(ADC_SAR_X_DEFAULT_INTERNAL_CLK)
 157:Generated_Source\PSoC5/ADC_SAR_X.c ****         ADC_SAR_X_PWRMGR_CLK_REG |= ADC_SAR_X_ACT_PWR_CLK_EN;
 158:Generated_Source\PSoC5/ADC_SAR_X.c ****         ADC_SAR_X_STBY_PWRMGR_CLK_REG |= ADC_SAR_X_STBY_PWR_CLK_EN;
 159:Generated_Source\PSoC5/ADC_SAR_X.c ****     #endif /* End ADC_SAR_X_DEFAULT_INTERNAL_CLK */
 160:Generated_Source\PSoC5/ADC_SAR_X.c **** 
 161:Generated_Source\PSoC5/ADC_SAR_X.c ****     /* Enable VCM buffer and Enable Int Ref Amp */
 162:Generated_Source\PSoC5/ADC_SAR_X.c ****     tmpReg = ADC_SAR_X_SAR_CSR3_REG;
 163:Generated_Source\PSoC5/ADC_SAR_X.c ****     tmpReg |= ADC_SAR_X_SAR_EN_BUF_VCM_EN;
 164:Generated_Source\PSoC5/ADC_SAR_X.c ****     /* PD_BUF_VREF is OFF in External reference or Vdda reference mode */
 165:Generated_Source\PSoC5/ADC_SAR_X.c ****     #if((ADC_SAR_X_DEFAULT_REFERENCE == ADC_SAR_X__EXT_REF) || \
 166:Generated_Source\PSoC5/ADC_SAR_X.c ****         (ADC_SAR_X_DEFAULT_RANGE == ADC_SAR_X__VNEG_VDDA_DIFF))
 167:Generated_Source\PSoC5/ADC_SAR_X.c ****         tmpReg &= (uint8)~ADC_SAR_X_SAR_EN_BUF_VREF_EN;
 168:Generated_Source\PSoC5/ADC_SAR_X.c ****     #else /* In INTREF or INTREF Bypassed this buffer is ON */
 169:Generated_Source\PSoC5/ADC_SAR_X.c ****         tmpReg |= ADC_SAR_X_SAR_EN_BUF_VREF_EN;
 170:Generated_Source\PSoC5/ADC_SAR_X.c ****     #endif /* ADC_SAR_X_DEFAULT_REFERENCE == ADC_SAR_X__EXT_REF */
 171:Generated_Source\PSoC5/ADC_SAR_X.c ****     ADC_SAR_X_SAR_CSR3_REG = tmpReg;
 172:Generated_Source\PSoC5/ADC_SAR_X.c **** 
 173:Generated_Source\PSoC5/ADC_SAR_X.c ****     /* Set reference for ADC */
 174:Generated_Source\PSoC5/ADC_SAR_X.c ****     #if(ADC_SAR_X_DEFAULT_RANGE == ADC_SAR_X__VNEG_VDDA_DIFF)
 175:Generated_Source\PSoC5/ADC_SAR_X.c ****         #if(ADC_SAR_X_DEFAULT_REFERENCE == ADC_SAR_X__EXT_REF)
 176:Generated_Source\PSoC5/ADC_SAR_X.c ****             ADC_SAR_X_SAR_CSR6_REG = ADC_SAR_X_INT_BYPASS_EXT_VREF; /* S2 */
 177:Generated_Source\PSoC5/ADC_SAR_X.c ****         #else /* Internal Vdda reference or obsolete bypass mode */
 178:Generated_Source\PSoC5/ADC_SAR_X.c ****             ADC_SAR_X_SAR_CSR6_REG = ADC_SAR_X_VDDA_VREF;           /* S7 */
 179:Generated_Source\PSoC5/ADC_SAR_X.c ****         #endif /* ADC_SAR_X_DEFAULT_REFERENCE == ADC_SAR_X__EXT_REF */
 180:Generated_Source\PSoC5/ADC_SAR_X.c ****     #else  /* Reference goes through internal buffer */
 181:Generated_Source\PSoC5/ADC_SAR_X.c ****         #if(ADC_SAR_X_DEFAULT_REFERENCE == ADC_SAR_X__INT_REF_NOT_BYPASSED)
 182:Generated_Source\PSoC5/ADC_SAR_X.c ****             ADC_SAR_X_SAR_CSR6_REG = ADC_SAR_X_INT_VREF;            /* S3 + S4 */
 183:Generated_Source\PSoC5/ADC_SAR_X.c ****         #else /* INTREF Bypassed of External */
 184:Generated_Source\PSoC5/ADC_SAR_X.c ****             ADC_SAR_X_SAR_CSR6_REG = ADC_SAR_X_INT_BYPASS_EXT_VREF; /* S2 */
 185:Generated_Source\PSoC5/ADC_SAR_X.c ****         #endif /* ADC_SAR_X_DEFAULT_REFERENCE == ADC_SAR_X__INT_REF_NOT_BYPASSED */
 186:Generated_Source\PSoC5/ADC_SAR_X.c ****     #endif /* VNEG_VDDA_DIFF */
 187:Generated_Source\PSoC5/ADC_SAR_X.c **** 
 188:Generated_Source\PSoC5/ADC_SAR_X.c ****     /* Low non-overlap delay for sampling clock signals (for 1MSPS) */
 189:Generated_Source\PSoC5/ADC_SAR_X.c ****     #if(ADC_SAR_X_HIGH_POWER_PULSE == 0u) /* MinPulseWidth <= 50 ns */
 190:Generated_Source\PSoC5/ADC_SAR_X.c ****         ADC_SAR_X_SAR_CSR5_REG &= (uint8)~ADC_SAR_X_SAR_DLY_INC;
 191:Generated_Source\PSoC5/ADC_SAR_X.c ****     #else /* Set High non-overlap delay for sampling clock signals (for <500KSPS)*/
 192:Generated_Source\PSoC5/ADC_SAR_X.c ****         ADC_SAR_X_SAR_CSR5_REG |= ADC_SAR_X_SAR_DLY_INC;
 193:Generated_Source\PSoC5/ADC_SAR_X.c ****     #endif /* ADC_SAR_X_HIGH_POWER_PULSE == 0u */
 194:Generated_Source\PSoC5/ADC_SAR_X.c **** 
 195:Generated_Source\PSoC5/ADC_SAR_X.c ****     /* Increase comparator latch enable delay by 20%, 
 196:Generated_Source\PSoC5/ADC_SAR_X.c ****     *  Increase comparator bias current by 30% without impacting delaysDelay 
 197:Generated_Source\PSoC5/ADC_SAR_X.c ****     *  Default for 1MSPS) 
 198:Generated_Source\PSoC5/ADC_SAR_X.c ****     */
 199:Generated_Source\PSoC5/ADC_SAR_X.c ****     #if(ADC_SAR_X_HIGH_POWER_PULSE == 0u)    /* MinPulseWidth <= 50 ns */
 200:Generated_Source\PSoC5/ADC_SAR_X.c ****         ADC_SAR_X_SAR_CSR5_REG |= ADC_SAR_X_SAR_SEL_CSEL_DFT_CHAR;
 201:Generated_Source\PSoC5/ADC_SAR_X.c ****     #else /* for <500ksps */
 202:Generated_Source\PSoC5/ADC_SAR_X.c ****         ADC_SAR_X_SAR_CSR5_REG &= (uint8)~ADC_SAR_X_SAR_SEL_CSEL_DFT_CHAR;
ARM GAS  C:\Users\Dell\AppData\Local\Temp\ccWrsJ8h.s 			page 5


 203:Generated_Source\PSoC5/ADC_SAR_X.c ****     #endif /* ADC_SAR_X_HIGH_POWER_PULSE == 0u */
 204:Generated_Source\PSoC5/ADC_SAR_X.c **** 
 205:Generated_Source\PSoC5/ADC_SAR_X.c ****     /* Set default power and other configurations for control register 0 in multiple lines */
 206:Generated_Source\PSoC5/ADC_SAR_X.c ****     ADC_SAR_X_SAR_CSR0_REG = (uint8)((uint8)ADC_SAR_X_DEFAULT_POWER << ADC_SAR_X_SAR_POWER_SHIFT)
 207:Generated_Source\PSoC5/ADC_SAR_X.c ****     /* SAR_HIZ_CLEAR:   Should not be used for LP */
 208:Generated_Source\PSoC5/ADC_SAR_X.c ****     #if ((CY_PSOC5LP) || (ADC_SAR_X_DEFAULT_REFERENCE != ADC_SAR_X__EXT_REF))
 209:Generated_Source\PSoC5/ADC_SAR_X.c ****         | ADC_SAR_X_SAR_HIZ_CLEAR
 210:Generated_Source\PSoC5/ADC_SAR_X.c ****     #endif /* SAR_HIZ_CLEAR */
 211:Generated_Source\PSoC5/ADC_SAR_X.c ****     /*Set Convertion mode */
 212:Generated_Source\PSoC5/ADC_SAR_X.c ****     #if(ADC_SAR_X_DEFAULT_CONV_MODE != ADC_SAR_X__FREE_RUNNING)      /* If triggered mode */
 213:Generated_Source\PSoC5/ADC_SAR_X.c ****         | ADC_SAR_X_SAR_MX_SOF_UDB           /* source: UDB */
 214:Generated_Source\PSoC5/ADC_SAR_X.c ****         | ADC_SAR_X_SAR_SOF_MODE_EDGE        /* Set edge-sensitive sof source */
 215:Generated_Source\PSoC5/ADC_SAR_X.c ****     #endif /* ADC_SAR_X_DEFAULT_CONV_MODE */
 216:Generated_Source\PSoC5/ADC_SAR_X.c ****     ; /* end of multiple line initialization */
 217:Generated_Source\PSoC5/ADC_SAR_X.c **** 
 218:Generated_Source\PSoC5/ADC_SAR_X.c ****     ADC_SAR_X_SAR_TR0_REG = ADC_SAR_X_SAR_CAP_TRIM_2;
 219:Generated_Source\PSoC5/ADC_SAR_X.c **** 
 220:Generated_Source\PSoC5/ADC_SAR_X.c ****     /* Enable clock for SAR ADC*/
 221:Generated_Source\PSoC5/ADC_SAR_X.c ****     ADC_SAR_X_SAR_CLK_REG |= ADC_SAR_X_SAR_MX_CLK_EN;
 222:Generated_Source\PSoC5/ADC_SAR_X.c **** 
 223:Generated_Source\PSoC5/ADC_SAR_X.c ****     CyDelayUs(10u); /* The block is ready to use 10 us after the enable signal is set high. */
 224:Generated_Source\PSoC5/ADC_SAR_X.c **** 
 225:Generated_Source\PSoC5/ADC_SAR_X.c ****     #if(ADC_SAR_X_IRQ_REMOVE == 0u)
 226:Generated_Source\PSoC5/ADC_SAR_X.c ****         /* Clear a pending interrupt */
 227:Generated_Source\PSoC5/ADC_SAR_X.c ****         CyIntClearPending(ADC_SAR_X_INTC_NUMBER);
 228:Generated_Source\PSoC5/ADC_SAR_X.c ****     #endif   /* End ADC_SAR_X_IRQ_REMOVE */
 229:Generated_Source\PSoC5/ADC_SAR_X.c **** 
 230:Generated_Source\PSoC5/ADC_SAR_X.c ****     CyExitCriticalSection(enableInterrupts);
 231:Generated_Source\PSoC5/ADC_SAR_X.c **** }
 232:Generated_Source\PSoC5/ADC_SAR_X.c **** 
 233:Generated_Source\PSoC5/ADC_SAR_X.c **** 
 234:Generated_Source\PSoC5/ADC_SAR_X.c **** /*******************************************************************************
 235:Generated_Source\PSoC5/ADC_SAR_X.c **** * Function Name: ADC_SAR_X_Stop
 236:Generated_Source\PSoC5/ADC_SAR_X.c **** ********************************************************************************
 237:Generated_Source\PSoC5/ADC_SAR_X.c **** *
 238:Generated_Source\PSoC5/ADC_SAR_X.c **** * Summary:
 239:Generated_Source\PSoC5/ADC_SAR_X.c **** *  Stops ADC conversions and puts the ADC into its lowest power mode.
 240:Generated_Source\PSoC5/ADC_SAR_X.c **** *
 241:Generated_Source\PSoC5/ADC_SAR_X.c **** * Parameters:
 242:Generated_Source\PSoC5/ADC_SAR_X.c **** *  None.
 243:Generated_Source\PSoC5/ADC_SAR_X.c **** *
 244:Generated_Source\PSoC5/ADC_SAR_X.c **** * Return:
 245:Generated_Source\PSoC5/ADC_SAR_X.c **** *  None.
 246:Generated_Source\PSoC5/ADC_SAR_X.c **** *
 247:Generated_Source\PSoC5/ADC_SAR_X.c **** *******************************************************************************/
 248:Generated_Source\PSoC5/ADC_SAR_X.c **** void ADC_SAR_X_Stop(void)
 249:Generated_Source\PSoC5/ADC_SAR_X.c **** {
 250:Generated_Source\PSoC5/ADC_SAR_X.c ****     uint8 enableInterrupts;
 251:Generated_Source\PSoC5/ADC_SAR_X.c ****     enableInterrupts = CyEnterCriticalSection();
 252:Generated_Source\PSoC5/ADC_SAR_X.c **** 
 253:Generated_Source\PSoC5/ADC_SAR_X.c ****     /* Stop all conversions */
 254:Generated_Source\PSoC5/ADC_SAR_X.c ****     ADC_SAR_X_SAR_CSR0_REG &= (uint8)~ADC_SAR_X_SAR_SOF_START_CONV;
 255:Generated_Source\PSoC5/ADC_SAR_X.c ****     /* Disable the SAR ADC block in Active Power Mode */
 256:Generated_Source\PSoC5/ADC_SAR_X.c ****     ADC_SAR_X_PWRMGR_SAR_REG &= (uint8)~ADC_SAR_X_ACT_PWR_SAR_EN;
 257:Generated_Source\PSoC5/ADC_SAR_X.c ****     /* Disable the SAR ADC in Standby Power Mode */
 258:Generated_Source\PSoC5/ADC_SAR_X.c ****     ADC_SAR_X_STBY_PWRMGR_SAR_REG &= (uint8)~ADC_SAR_X_STBY_PWR_SAR_EN;
 259:Generated_Source\PSoC5/ADC_SAR_X.c **** 
ARM GAS  C:\Users\Dell\AppData\Local\Temp\ccWrsJ8h.s 			page 6


 260:Generated_Source\PSoC5/ADC_SAR_X.c ****     /* This is only valid if there is an internal clock */
 261:Generated_Source\PSoC5/ADC_SAR_X.c ****     #if(ADC_SAR_X_DEFAULT_INTERNAL_CLK)
 262:Generated_Source\PSoC5/ADC_SAR_X.c ****         ADC_SAR_X_PWRMGR_CLK_REG &= (uint8)~ADC_SAR_X_ACT_PWR_CLK_EN;
 263:Generated_Source\PSoC5/ADC_SAR_X.c ****         ADC_SAR_X_STBY_PWRMGR_CLK_REG &= (uint8)~ADC_SAR_X_STBY_PWR_CLK_EN;
 264:Generated_Source\PSoC5/ADC_SAR_X.c ****     #endif /* End ADC_SAR_X_DEFAULT_INTERNAL_CLK */
 265:Generated_Source\PSoC5/ADC_SAR_X.c **** 
 266:Generated_Source\PSoC5/ADC_SAR_X.c ****     CyExitCriticalSection(enableInterrupts);
 267:Generated_Source\PSoC5/ADC_SAR_X.c **** 
 268:Generated_Source\PSoC5/ADC_SAR_X.c **** }
 269:Generated_Source\PSoC5/ADC_SAR_X.c **** 
 270:Generated_Source\PSoC5/ADC_SAR_X.c **** 
 271:Generated_Source\PSoC5/ADC_SAR_X.c **** /*******************************************************************************
 272:Generated_Source\PSoC5/ADC_SAR_X.c **** * Function Name: ADC_SAR_X_SetPower
 273:Generated_Source\PSoC5/ADC_SAR_X.c **** ********************************************************************************
 274:Generated_Source\PSoC5/ADC_SAR_X.c **** *
 275:Generated_Source\PSoC5/ADC_SAR_X.c **** * Summary:
 276:Generated_Source\PSoC5/ADC_SAR_X.c **** *  Sets the operational power of the ADC. You should use the higher power
 277:Generated_Source\PSoC5/ADC_SAR_X.c **** *  settings with faster clock speeds.
 278:Generated_Source\PSoC5/ADC_SAR_X.c **** *
 279:Generated_Source\PSoC5/ADC_SAR_X.c **** * Parameters:
 280:Generated_Source\PSoC5/ADC_SAR_X.c **** *  power:  Power setting for ADC
 281:Generated_Source\PSoC5/ADC_SAR_X.c **** *  0 ->    Normal
 282:Generated_Source\PSoC5/ADC_SAR_X.c **** *  1 ->    Medium power
 283:Generated_Source\PSoC5/ADC_SAR_X.c **** *  2 ->    1.25 power
 284:Generated_Source\PSoC5/ADC_SAR_X.c **** *  3 ->    Minimum power.
 285:Generated_Source\PSoC5/ADC_SAR_X.c **** *
 286:Generated_Source\PSoC5/ADC_SAR_X.c **** * Return:
 287:Generated_Source\PSoC5/ADC_SAR_X.c **** *  None.
 288:Generated_Source\PSoC5/ADC_SAR_X.c **** *
 289:Generated_Source\PSoC5/ADC_SAR_X.c **** *******************************************************************************/
 290:Generated_Source\PSoC5/ADC_SAR_X.c **** void ADC_SAR_X_SetPower(uint8 power)
 291:Generated_Source\PSoC5/ADC_SAR_X.c **** {
 292:Generated_Source\PSoC5/ADC_SAR_X.c ****     uint8 tmpReg;
 293:Generated_Source\PSoC5/ADC_SAR_X.c **** 
 294:Generated_Source\PSoC5/ADC_SAR_X.c ****     /* mask off invalid power settings */
 295:Generated_Source\PSoC5/ADC_SAR_X.c ****     power &= ADC_SAR_X_SAR_API_POWER_MASK;
 296:Generated_Source\PSoC5/ADC_SAR_X.c **** 
 297:Generated_Source\PSoC5/ADC_SAR_X.c ****     /* Set Power parameter  */
 298:Generated_Source\PSoC5/ADC_SAR_X.c ****     tmpReg = ADC_SAR_X_SAR_CSR0_REG & (uint8)~ADC_SAR_X_SAR_POWER_MASK;
 299:Generated_Source\PSoC5/ADC_SAR_X.c ****     tmpReg |= (uint8)(power << ADC_SAR_X_SAR_POWER_SHIFT);
 300:Generated_Source\PSoC5/ADC_SAR_X.c ****     ADC_SAR_X_SAR_CSR0_REG = tmpReg;
 301:Generated_Source\PSoC5/ADC_SAR_X.c **** }
 302:Generated_Source\PSoC5/ADC_SAR_X.c **** 
 303:Generated_Source\PSoC5/ADC_SAR_X.c **** 
 304:Generated_Source\PSoC5/ADC_SAR_X.c **** /*******************************************************************************
 305:Generated_Source\PSoC5/ADC_SAR_X.c **** * Function Name: ADC_SAR_X_SetResolution
 306:Generated_Source\PSoC5/ADC_SAR_X.c **** ********************************************************************************
 307:Generated_Source\PSoC5/ADC_SAR_X.c **** *
 308:Generated_Source\PSoC5/ADC_SAR_X.c **** * Summary:
 309:Generated_Source\PSoC5/ADC_SAR_X.c **** *  Sets the Relution of the SAR.
 310:Generated_Source\PSoC5/ADC_SAR_X.c **** *
 311:Generated_Source\PSoC5/ADC_SAR_X.c **** * Parameters:
 312:Generated_Source\PSoC5/ADC_SAR_X.c **** *  resolution:
 313:Generated_Source\PSoC5/ADC_SAR_X.c **** *  12 ->    RES12
 314:Generated_Source\PSoC5/ADC_SAR_X.c **** *  10 ->    RES10
 315:Generated_Source\PSoC5/ADC_SAR_X.c **** *  8  ->    RES8
 316:Generated_Source\PSoC5/ADC_SAR_X.c **** *
ARM GAS  C:\Users\Dell\AppData\Local\Temp\ccWrsJ8h.s 			page 7


 317:Generated_Source\PSoC5/ADC_SAR_X.c **** * Return:
 318:Generated_Source\PSoC5/ADC_SAR_X.c **** *  None.
 319:Generated_Source\PSoC5/ADC_SAR_X.c **** *
 320:Generated_Source\PSoC5/ADC_SAR_X.c **** * Side Effects:
 321:Generated_Source\PSoC5/ADC_SAR_X.c **** *  The ADC resolution cannot be changed during a conversion cycle. The
 322:Generated_Source\PSoC5/ADC_SAR_X.c **** *  recommended best practice is to stop conversions with
 323:Generated_Source\PSoC5/ADC_SAR_X.c **** *  ADC_StopConvert(), change the resolution, then restart the
 324:Generated_Source\PSoC5/ADC_SAR_X.c **** *  conversions with ADC_StartConvert().
 325:Generated_Source\PSoC5/ADC_SAR_X.c **** *  If you decide not to stop conversions before calling this API, you
 326:Generated_Source\PSoC5/ADC_SAR_X.c **** *  should use ADC_IsEndConversion() to wait until conversion is complete
 327:Generated_Source\PSoC5/ADC_SAR_X.c **** *  before changing the resolution.
 328:Generated_Source\PSoC5/ADC_SAR_X.c **** *  If you call ADC_SetResolution() during a conversion, the resolution will
 329:Generated_Source\PSoC5/ADC_SAR_X.c **** *  not be changed until the current conversion is complete. Data will not be
 330:Generated_Source\PSoC5/ADC_SAR_X.c **** *  available in the new resolution for another 6 + "New Resolution(in bits)"
 331:Generated_Source\PSoC5/ADC_SAR_X.c **** *  clock cycles.
 332:Generated_Source\PSoC5/ADC_SAR_X.c **** *  You may need add a delay of this number of clock cycles after
 333:Generated_Source\PSoC5/ADC_SAR_X.c **** *  ADC_SetResolution() is called before data is valid again.
 334:Generated_Source\PSoC5/ADC_SAR_X.c **** *  Affects ADC_CountsTo_Volts(), ADC_CountsTo_mVolts(), and
 335:Generated_Source\PSoC5/ADC_SAR_X.c **** *  ADC_CountsTo_uVolts() by calculating the correct conversion between ADC
 336:Generated_Source\PSoC5/ADC_SAR_X.c **** *  counts and the applied input voltage. Calculation depends on resolution,
 337:Generated_Source\PSoC5/ADC_SAR_X.c **** *  input range, and voltage reference.
 338:Generated_Source\PSoC5/ADC_SAR_X.c **** *
 339:Generated_Source\PSoC5/ADC_SAR_X.c **** *******************************************************************************/
 340:Generated_Source\PSoC5/ADC_SAR_X.c **** void ADC_SAR_X_SetResolution(uint8 resolution)
 341:Generated_Source\PSoC5/ADC_SAR_X.c **** {
 342:Generated_Source\PSoC5/ADC_SAR_X.c ****     uint8 tmpReg;
 343:Generated_Source\PSoC5/ADC_SAR_X.c **** 
 344:Generated_Source\PSoC5/ADC_SAR_X.c ****     /* Set SAR ADC resolution and sample width: 18 conversion cycles at 12bits + 1 gap */
 345:Generated_Source\PSoC5/ADC_SAR_X.c ****     switch (resolution)
 346:Generated_Source\PSoC5/ADC_SAR_X.c ****     {
 347:Generated_Source\PSoC5/ADC_SAR_X.c ****         case (uint8)ADC_SAR_X__BITS_12:
 348:Generated_Source\PSoC5/ADC_SAR_X.c ****             tmpReg = ADC_SAR_X_SAR_RESOLUTION_12BIT | ADC_SAR_X_SAR_SAMPLE_WIDTH;
 349:Generated_Source\PSoC5/ADC_SAR_X.c ****             break;
 350:Generated_Source\PSoC5/ADC_SAR_X.c ****         case (uint8)ADC_SAR_X__BITS_10:
 351:Generated_Source\PSoC5/ADC_SAR_X.c ****             tmpReg = ADC_SAR_X_SAR_RESOLUTION_10BIT | ADC_SAR_X_SAR_SAMPLE_WIDTH;
 352:Generated_Source\PSoC5/ADC_SAR_X.c ****             break;
 353:Generated_Source\PSoC5/ADC_SAR_X.c ****         case (uint8)ADC_SAR_X__BITS_8:
 354:Generated_Source\PSoC5/ADC_SAR_X.c ****             tmpReg = ADC_SAR_X_SAR_RESOLUTION_8BIT | ADC_SAR_X_SAR_SAMPLE_WIDTH;
 355:Generated_Source\PSoC5/ADC_SAR_X.c ****             break;
 356:Generated_Source\PSoC5/ADC_SAR_X.c ****         default:
 357:Generated_Source\PSoC5/ADC_SAR_X.c ****             tmpReg = ADC_SAR_X_SAR_RESOLUTION_12BIT | ADC_SAR_X_SAR_SAMPLE_WIDTH;
 358:Generated_Source\PSoC5/ADC_SAR_X.c ****             /* Halt CPU in debug mode if resolution is out of valid range */
 359:Generated_Source\PSoC5/ADC_SAR_X.c ****             CYASSERT(0u != 0u);
 360:Generated_Source\PSoC5/ADC_SAR_X.c ****             break;
 361:Generated_Source\PSoC5/ADC_SAR_X.c ****     }
 362:Generated_Source\PSoC5/ADC_SAR_X.c ****     ADC_SAR_X_SAR_CSR2_REG = tmpReg;
 363:Generated_Source\PSoC5/ADC_SAR_X.c **** 
 364:Generated_Source\PSoC5/ADC_SAR_X.c ****      /* Calculate gain for convert counts to volts */
 365:Generated_Source\PSoC5/ADC_SAR_X.c ****     ADC_SAR_X_CalcGain(resolution);
 366:Generated_Source\PSoC5/ADC_SAR_X.c **** }
 367:Generated_Source\PSoC5/ADC_SAR_X.c **** 
 368:Generated_Source\PSoC5/ADC_SAR_X.c **** 
 369:Generated_Source\PSoC5/ADC_SAR_X.c **** #if(ADC_SAR_X_DEFAULT_CONV_MODE != ADC_SAR_X__HARDWARE_TRIGGER)
 370:Generated_Source\PSoC5/ADC_SAR_X.c **** 
 371:Generated_Source\PSoC5/ADC_SAR_X.c **** 
 372:Generated_Source\PSoC5/ADC_SAR_X.c ****     /*******************************************************************************
 373:Generated_Source\PSoC5/ADC_SAR_X.c ****     * Function Name: ADC_SAR_X_StartConvert
ARM GAS  C:\Users\Dell\AppData\Local\Temp\ccWrsJ8h.s 			page 8


 374:Generated_Source\PSoC5/ADC_SAR_X.c ****     ********************************************************************************
 375:Generated_Source\PSoC5/ADC_SAR_X.c ****     *
 376:Generated_Source\PSoC5/ADC_SAR_X.c ****     * Summary:
 377:Generated_Source\PSoC5/ADC_SAR_X.c ****     *  Forces the ADC to initiate a conversion. In free-running mode, the ADC runs
 378:Generated_Source\PSoC5/ADC_SAR_X.c ****     *  continuously. In software trigger mode, the function also acts as a software
 379:Generated_Source\PSoC5/ADC_SAR_X.c ****     *  version of the SOC and every conversion must be triggered by
 380:Generated_Source\PSoC5/ADC_SAR_X.c ****     *  ADC_SAR_X_StartConvert(). This function is not available when the
 381:Generated_Source\PSoC5/ADC_SAR_X.c ****     *  Hardware Trigger sample mode is selected.
 382:Generated_Source\PSoC5/ADC_SAR_X.c ****     *
 383:Generated_Source\PSoC5/ADC_SAR_X.c ****     * Parameters:
 384:Generated_Source\PSoC5/ADC_SAR_X.c ****     *  None.
 385:Generated_Source\PSoC5/ADC_SAR_X.c ****     *
 386:Generated_Source\PSoC5/ADC_SAR_X.c ****     * Return:
 387:Generated_Source\PSoC5/ADC_SAR_X.c ****     *  None.
 388:Generated_Source\PSoC5/ADC_SAR_X.c ****     *
 389:Generated_Source\PSoC5/ADC_SAR_X.c ****     * Theory:
 390:Generated_Source\PSoC5/ADC_SAR_X.c ****     *  Forces the ADC to initiate a conversion. In Free Running mode, the ADC will
 391:Generated_Source\PSoC5/ADC_SAR_X.c ****     *  run continuously. In a software trigger mode the function also acts as a
 392:Generated_Source\PSoC5/ADC_SAR_X.c ****     *  software version of the SOC. Here every conversion has to be triggered by
 393:Generated_Source\PSoC5/ADC_SAR_X.c ****     *  the routine. This writes into the SOC bit in SAR_CTRL reg.
 394:Generated_Source\PSoC5/ADC_SAR_X.c ****     *
 395:Generated_Source\PSoC5/ADC_SAR_X.c ****     * Side Effects:
 396:Generated_Source\PSoC5/ADC_SAR_X.c ****     *  In a software trigger mode the function switches source for SOF from the
 397:Generated_Source\PSoC5/ADC_SAR_X.c ****     *  external pin to the internal SOF generation. Application should not call
 398:Generated_Source\PSoC5/ADC_SAR_X.c ****     *  StartConvert if external source used for SOF.
 399:Generated_Source\PSoC5/ADC_SAR_X.c ****     *
 400:Generated_Source\PSoC5/ADC_SAR_X.c ****     *******************************************************************************/
 401:Generated_Source\PSoC5/ADC_SAR_X.c ****     void ADC_SAR_X_StartConvert(void)
 402:Generated_Source\PSoC5/ADC_SAR_X.c ****     {
 403:Generated_Source\PSoC5/ADC_SAR_X.c ****         #if(ADC_SAR_X_DEFAULT_CONV_MODE != ADC_SAR_X__FREE_RUNNING)  /* If software triggered mode 
 404:Generated_Source\PSoC5/ADC_SAR_X.c ****             ADC_SAR_X_SAR_CSR0_REG &= (uint8)~ADC_SAR_X_SAR_MX_SOF_UDB;   /* source: SOF bit */
 405:Generated_Source\PSoC5/ADC_SAR_X.c ****         #endif /* End ADC_SAR_X_DEFAULT_CONV_MODE */
 406:Generated_Source\PSoC5/ADC_SAR_X.c **** 
 407:Generated_Source\PSoC5/ADC_SAR_X.c ****         /* Start the conversion */
 408:Generated_Source\PSoC5/ADC_SAR_X.c ****         ADC_SAR_X_SAR_CSR0_REG |= ADC_SAR_X_SAR_SOF_START_CONV;
 409:Generated_Source\PSoC5/ADC_SAR_X.c ****     }
 410:Generated_Source\PSoC5/ADC_SAR_X.c **** 
 411:Generated_Source\PSoC5/ADC_SAR_X.c **** 
 412:Generated_Source\PSoC5/ADC_SAR_X.c ****     /*******************************************************************************
 413:Generated_Source\PSoC5/ADC_SAR_X.c ****     * Function Name: ADC_SAR_X_StopConvert
 414:Generated_Source\PSoC5/ADC_SAR_X.c ****     ********************************************************************************
 415:Generated_Source\PSoC5/ADC_SAR_X.c ****     *
 416:Generated_Source\PSoC5/ADC_SAR_X.c ****     * Summary:
 417:Generated_Source\PSoC5/ADC_SAR_X.c ****     *  Forces the ADC to stop conversions. If a conversion is currently executing,
 418:Generated_Source\PSoC5/ADC_SAR_X.c ****     *  that conversion will complete, but no further conversions will occur. This
 419:Generated_Source\PSoC5/ADC_SAR_X.c ****     *  function is not available when the Hardware Trigger sample mode is selected.
 420:Generated_Source\PSoC5/ADC_SAR_X.c ****     *
 421:Generated_Source\PSoC5/ADC_SAR_X.c ****     * Parameters:
 422:Generated_Source\PSoC5/ADC_SAR_X.c ****     *  None.
 423:Generated_Source\PSoC5/ADC_SAR_X.c ****     *
 424:Generated_Source\PSoC5/ADC_SAR_X.c ****     * Return:
 425:Generated_Source\PSoC5/ADC_SAR_X.c ****     *  None.
 426:Generated_Source\PSoC5/ADC_SAR_X.c ****     *
 427:Generated_Source\PSoC5/ADC_SAR_X.c ****     * Theory:
 428:Generated_Source\PSoC5/ADC_SAR_X.c ****     *  Stops ADC conversion in Free Running mode.
 429:Generated_Source\PSoC5/ADC_SAR_X.c ****     *
 430:Generated_Source\PSoC5/ADC_SAR_X.c ****     * Side Effects:
ARM GAS  C:\Users\Dell\AppData\Local\Temp\ccWrsJ8h.s 			page 9


 431:Generated_Source\PSoC5/ADC_SAR_X.c ****     *  In Software Trigger sample mode, this function sets a software version of the
 432:Generated_Source\PSoC5/ADC_SAR_X.c ****     *  SOC to low level and switches the SOC source to hardware SOC input.
 433:Generated_Source\PSoC5/ADC_SAR_X.c ****     *
 434:Generated_Source\PSoC5/ADC_SAR_X.c ****     *******************************************************************************/
 435:Generated_Source\PSoC5/ADC_SAR_X.c ****     void ADC_SAR_X_StopConvert(void)
 436:Generated_Source\PSoC5/ADC_SAR_X.c ****     {
 437:Generated_Source\PSoC5/ADC_SAR_X.c ****         /* Stop all conversions */
 438:Generated_Source\PSoC5/ADC_SAR_X.c ****         ADC_SAR_X_SAR_CSR0_REG &= (uint8)~ADC_SAR_X_SAR_SOF_START_CONV;
 439:Generated_Source\PSoC5/ADC_SAR_X.c **** 
 440:Generated_Source\PSoC5/ADC_SAR_X.c ****         #if(ADC_SAR_X_DEFAULT_CONV_MODE != ADC_SAR_X__FREE_RUNNING)  /* If software triggered mode 
 441:Generated_Source\PSoC5/ADC_SAR_X.c ****             /* Return source to UDB for hardware SOF signal */
 442:Generated_Source\PSoC5/ADC_SAR_X.c ****             ADC_SAR_X_SAR_CSR0_REG |= ADC_SAR_X_SAR_MX_SOF_UDB;    /* source: UDB */
 443:Generated_Source\PSoC5/ADC_SAR_X.c ****         #endif /* End ADC_SAR_X_DEFAULT_CONV_MODE */
 444:Generated_Source\PSoC5/ADC_SAR_X.c **** 
 445:Generated_Source\PSoC5/ADC_SAR_X.c ****     }
 446:Generated_Source\PSoC5/ADC_SAR_X.c **** 
 447:Generated_Source\PSoC5/ADC_SAR_X.c **** #endif /* End ADC_SAR_X_DEFAULT_CONV_MODE != ADC_SAR_X__HARDWARE_TRIGGER */
 448:Generated_Source\PSoC5/ADC_SAR_X.c **** 
 449:Generated_Source\PSoC5/ADC_SAR_X.c **** 
 450:Generated_Source\PSoC5/ADC_SAR_X.c **** /*******************************************************************************
 451:Generated_Source\PSoC5/ADC_SAR_X.c **** * Function Name: ADC_SAR_X_IsEndConversion
 452:Generated_Source\PSoC5/ADC_SAR_X.c **** ********************************************************************************
 453:Generated_Source\PSoC5/ADC_SAR_X.c **** *
 454:Generated_Source\PSoC5/ADC_SAR_X.c **** * Summary:
 455:Generated_Source\PSoC5/ADC_SAR_X.c **** *  Immediately returns the status of the conversion or does not return
 456:Generated_Source\PSoC5/ADC_SAR_X.c **** *  (blocking) until the conversion completes, depending on the retMode
 457:Generated_Source\PSoC5/ADC_SAR_X.c **** *  parameter.
 458:Generated_Source\PSoC5/ADC_SAR_X.c **** *
 459:Generated_Source\PSoC5/ADC_SAR_X.c **** * Parameters:
 460:Generated_Source\PSoC5/ADC_SAR_X.c **** *  retMode:  Check conversion return mode.
 461:Generated_Source\PSoC5/ADC_SAR_X.c **** *   ADC_SAR_X_RETURN_STATUS: Immediately returns the status. If the
 462:Generated_Source\PSoC5/ADC_SAR_X.c **** *     value returned is zero, the conversion is not complete, and this function
 463:Generated_Source\PSoC5/ADC_SAR_X.c **** *     should be retried until a nonzero result is returned.
 464:Generated_Source\PSoC5/ADC_SAR_X.c **** *   ADC_SAR_X_WAIT_FOR_RESULT: Does not return a result until the ADC
 465:Generated_Source\PSoC5/ADC_SAR_X.c **** *     conversion is complete.
 466:Generated_Source\PSoC5/ADC_SAR_X.c **** *
 467:Generated_Source\PSoC5/ADC_SAR_X.c **** * Return:
 468:Generated_Source\PSoC5/ADC_SAR_X.c **** *  (uint8)  0 =>  The ADC is still calculating the last result.
 469:Generated_Source\PSoC5/ADC_SAR_X.c **** *           1 =>  The last conversion is complete.
 470:Generated_Source\PSoC5/ADC_SAR_X.c **** *
 471:Generated_Source\PSoC5/ADC_SAR_X.c **** * Side Effects:
 472:Generated_Source\PSoC5/ADC_SAR_X.c **** *  This function reads the end of conversion status, which is cleared on read.
 473:Generated_Source\PSoC5/ADC_SAR_X.c **** *
 474:Generated_Source\PSoC5/ADC_SAR_X.c **** *******************************************************************************/
 475:Generated_Source\PSoC5/ADC_SAR_X.c **** uint8 ADC_SAR_X_IsEndConversion(uint8 retMode)
 476:Generated_Source\PSoC5/ADC_SAR_X.c **** {
 477:Generated_Source\PSoC5/ADC_SAR_X.c ****     uint8 status;
 478:Generated_Source\PSoC5/ADC_SAR_X.c **** 
 479:Generated_Source\PSoC5/ADC_SAR_X.c ****     do
 480:Generated_Source\PSoC5/ADC_SAR_X.c ****     {
 481:Generated_Source\PSoC5/ADC_SAR_X.c ****         status = ADC_SAR_X_SAR_CSR1_REG & ADC_SAR_X_SAR_EOF_1;
 482:Generated_Source\PSoC5/ADC_SAR_X.c ****     } while ((status != ADC_SAR_X_SAR_EOF_1) && (retMode == ADC_SAR_X_WAIT_FOR_RESULT));
 483:Generated_Source\PSoC5/ADC_SAR_X.c ****     /* If convertion complete, wait until EOF bit released */
 484:Generated_Source\PSoC5/ADC_SAR_X.c ****     if(status == ADC_SAR_X_SAR_EOF_1)
 485:Generated_Source\PSoC5/ADC_SAR_X.c ****     {
 486:Generated_Source\PSoC5/ADC_SAR_X.c ****         /* wait one ADC clock to let the EOC status bit release */
 487:Generated_Source\PSoC5/ADC_SAR_X.c ****         CyDelayUs(1u);
ARM GAS  C:\Users\Dell\AppData\Local\Temp\ccWrsJ8h.s 			page 10


 488:Generated_Source\PSoC5/ADC_SAR_X.c ****         /* Do the unconditional read operation of the CSR1 register to make sure the EOC bit has be
 489:Generated_Source\PSoC5/ADC_SAR_X.c ****         CY_GET_REG8(ADC_SAR_X_SAR_CSR1_PTR);
 490:Generated_Source\PSoC5/ADC_SAR_X.c ****     }
 491:Generated_Source\PSoC5/ADC_SAR_X.c **** 
 492:Generated_Source\PSoC5/ADC_SAR_X.c ****     return(status);
 493:Generated_Source\PSoC5/ADC_SAR_X.c **** }
 494:Generated_Source\PSoC5/ADC_SAR_X.c **** 
 495:Generated_Source\PSoC5/ADC_SAR_X.c **** 
 496:Generated_Source\PSoC5/ADC_SAR_X.c **** /*******************************************************************************
 497:Generated_Source\PSoC5/ADC_SAR_X.c **** * Function Name: ADC_SAR_X_GetResult8
 498:Generated_Source\PSoC5/ADC_SAR_X.c **** ********************************************************************************
 499:Generated_Source\PSoC5/ADC_SAR_X.c **** *
 500:Generated_Source\PSoC5/ADC_SAR_X.c **** * Summary:
 501:Generated_Source\PSoC5/ADC_SAR_X.c **** *  Returns the result of an 8-bit conversion. If the resolution is set greater
 502:Generated_Source\PSoC5/ADC_SAR_X.c **** *  than 8 bits, the function returns the LSB of the result.
 503:Generated_Source\PSoC5/ADC_SAR_X.c **** *  ADC_SAR_X_IsEndConversion() should be called to verify that the data
 504:Generated_Source\PSoC5/ADC_SAR_X.c **** *   sample is ready.
 505:Generated_Source\PSoC5/ADC_SAR_X.c **** *
 506:Generated_Source\PSoC5/ADC_SAR_X.c **** * Parameters:
 507:Generated_Source\PSoC5/ADC_SAR_X.c **** *  None.
 508:Generated_Source\PSoC5/ADC_SAR_X.c **** *
 509:Generated_Source\PSoC5/ADC_SAR_X.c **** * Return:
 510:Generated_Source\PSoC5/ADC_SAR_X.c **** *  The LSB of the last ADC conversion.
 511:Generated_Source\PSoC5/ADC_SAR_X.c **** *
 512:Generated_Source\PSoC5/ADC_SAR_X.c **** * Global Variables:
 513:Generated_Source\PSoC5/ADC_SAR_X.c **** *  ADC_SAR_X_shift - used to convert the ADC counts to the 2s
 514:Generated_Source\PSoC5/ADC_SAR_X.c **** *  compliment form.
 515:Generated_Source\PSoC5/ADC_SAR_X.c **** *
 516:Generated_Source\PSoC5/ADC_SAR_X.c **** * Side Effects:
 517:Generated_Source\PSoC5/ADC_SAR_X.c **** *  Converts the ADC counts to the 2s complement form.
 518:Generated_Source\PSoC5/ADC_SAR_X.c **** *
 519:Generated_Source\PSoC5/ADC_SAR_X.c **** *******************************************************************************/
 520:Generated_Source\PSoC5/ADC_SAR_X.c **** int8 ADC_SAR_X_GetResult8( void )
 521:Generated_Source\PSoC5/ADC_SAR_X.c **** {
 522:Generated_Source\PSoC5/ADC_SAR_X.c ****     return( (int8)ADC_SAR_X_SAR_WRK0_REG - (int8)ADC_SAR_X_shift);
 523:Generated_Source\PSoC5/ADC_SAR_X.c **** }
 524:Generated_Source\PSoC5/ADC_SAR_X.c **** 
 525:Generated_Source\PSoC5/ADC_SAR_X.c **** 
 526:Generated_Source\PSoC5/ADC_SAR_X.c **** /*******************************************************************************
 527:Generated_Source\PSoC5/ADC_SAR_X.c **** * Function Name: ADC_SAR_X_GetResult16
 528:Generated_Source\PSoC5/ADC_SAR_X.c **** ********************************************************************************
 529:Generated_Source\PSoC5/ADC_SAR_X.c **** *
 530:Generated_Source\PSoC5/ADC_SAR_X.c **** * Summary:
 531:Generated_Source\PSoC5/ADC_SAR_X.c **** *  Returns a 16-bit result for a conversion with a result that has a resolution
 532:Generated_Source\PSoC5/ADC_SAR_X.c **** *  of 8 to 12 bits.
 533:Generated_Source\PSoC5/ADC_SAR_X.c **** *  ADC_SAR_X_IsEndConversion() should be called to verify that the data
 534:Generated_Source\PSoC5/ADC_SAR_X.c **** *   sample is ready
 535:Generated_Source\PSoC5/ADC_SAR_X.c **** *
 536:Generated_Source\PSoC5/ADC_SAR_X.c **** * Parameters:
 537:Generated_Source\PSoC5/ADC_SAR_X.c **** *  None.
 538:Generated_Source\PSoC5/ADC_SAR_X.c **** *
 539:Generated_Source\PSoC5/ADC_SAR_X.c **** * Return:
 540:Generated_Source\PSoC5/ADC_SAR_X.c **** *  The 16-bit result of the last ADC conversion
 541:Generated_Source\PSoC5/ADC_SAR_X.c **** *
 542:Generated_Source\PSoC5/ADC_SAR_X.c **** * Global Variables:
 543:Generated_Source\PSoC5/ADC_SAR_X.c **** *  ADC_SAR_X_shift - used to convert the ADC counts to the 2s
 544:Generated_Source\PSoC5/ADC_SAR_X.c **** *  compliment form.
ARM GAS  C:\Users\Dell\AppData\Local\Temp\ccWrsJ8h.s 			page 11


 545:Generated_Source\PSoC5/ADC_SAR_X.c **** *
 546:Generated_Source\PSoC5/ADC_SAR_X.c **** * Side Effects:
 547:Generated_Source\PSoC5/ADC_SAR_X.c **** *  Converts the ADC counts to the 2s complement form.
 548:Generated_Source\PSoC5/ADC_SAR_X.c **** *
 549:Generated_Source\PSoC5/ADC_SAR_X.c **** *******************************************************************************/
 550:Generated_Source\PSoC5/ADC_SAR_X.c **** int16 ADC_SAR_X_GetResult16( void )
 551:Generated_Source\PSoC5/ADC_SAR_X.c **** {
 552:Generated_Source\PSoC5/ADC_SAR_X.c ****     uint16 res;
 553:Generated_Source\PSoC5/ADC_SAR_X.c **** 
 554:Generated_Source\PSoC5/ADC_SAR_X.c ****     res = CY_GET_REG16(ADC_SAR_X_SAR_WRK_PTR);
 555:Generated_Source\PSoC5/ADC_SAR_X.c **** 
 556:Generated_Source\PSoC5/ADC_SAR_X.c ****     return( (int16)res - ADC_SAR_X_shift );
 557:Generated_Source\PSoC5/ADC_SAR_X.c **** }
 558:Generated_Source\PSoC5/ADC_SAR_X.c **** 
 559:Generated_Source\PSoC5/ADC_SAR_X.c **** 
 560:Generated_Source\PSoC5/ADC_SAR_X.c **** /*******************************************************************************
 561:Generated_Source\PSoC5/ADC_SAR_X.c **** * Function Name: ADC_SAR_X_SetOffset
 562:Generated_Source\PSoC5/ADC_SAR_X.c **** ********************************************************************************
 563:Generated_Source\PSoC5/ADC_SAR_X.c **** *
 564:Generated_Source\PSoC5/ADC_SAR_X.c **** * Summary:
 565:Generated_Source\PSoC5/ADC_SAR_X.c **** *  Sets the ADC offset, which is used by ADC_SAR_X_CountsTo_Volts(),
 566:Generated_Source\PSoC5/ADC_SAR_X.c **** *  ADC_SAR_X_CountsTo_mVolts(), and ADC_SAR_X_CountsTo_uVolts()
 567:Generated_Source\PSoC5/ADC_SAR_X.c **** *  to subtract the offset from the given reading before calculating the voltage
 568:Generated_Source\PSoC5/ADC_SAR_X.c **** *  conversion.
 569:Generated_Source\PSoC5/ADC_SAR_X.c **** *
 570:Generated_Source\PSoC5/ADC_SAR_X.c **** * Parameters:
 571:Generated_Source\PSoC5/ADC_SAR_X.c **** *  int16: This value is measured when the inputs are shorted or connected to
 572:Generated_Source\PSoC5/ADC_SAR_X.c ****    the same input voltage.
 573:Generated_Source\PSoC5/ADC_SAR_X.c **** *
 574:Generated_Source\PSoC5/ADC_SAR_X.c **** * Return:
 575:Generated_Source\PSoC5/ADC_SAR_X.c **** *  None.
 576:Generated_Source\PSoC5/ADC_SAR_X.c **** *
 577:Generated_Source\PSoC5/ADC_SAR_X.c **** * Global Variables:
 578:Generated_Source\PSoC5/ADC_SAR_X.c **** *  The ADC_SAR_X_offset variable modified. This variable is used for
 579:Generated_Source\PSoC5/ADC_SAR_X.c **** *  offset calibration purpose.
 580:Generated_Source\PSoC5/ADC_SAR_X.c **** *  Affects the ADC_SAR_X_CountsTo_Volts,
 581:Generated_Source\PSoC5/ADC_SAR_X.c **** *  ADC_SAR_X_CountsTo_mVolts, ADC_SAR_X_CountsTo_uVolts functions
 582:Generated_Source\PSoC5/ADC_SAR_X.c **** *  by subtracting the given offset.
 583:Generated_Source\PSoC5/ADC_SAR_X.c **** *
 584:Generated_Source\PSoC5/ADC_SAR_X.c **** *******************************************************************************/
 585:Generated_Source\PSoC5/ADC_SAR_X.c **** void ADC_SAR_X_SetOffset(int16 offset)
 586:Generated_Source\PSoC5/ADC_SAR_X.c **** {
 587:Generated_Source\PSoC5/ADC_SAR_X.c ****     ADC_SAR_X_offset = offset;
 588:Generated_Source\PSoC5/ADC_SAR_X.c **** }
 589:Generated_Source\PSoC5/ADC_SAR_X.c **** 
 590:Generated_Source\PSoC5/ADC_SAR_X.c **** 
 591:Generated_Source\PSoC5/ADC_SAR_X.c **** /*******************************************************************************
 592:Generated_Source\PSoC5/ADC_SAR_X.c **** * Function Name: ADC_SAR_X_CalcGain
 593:Generated_Source\PSoC5/ADC_SAR_X.c **** ********************************************************************************
 594:Generated_Source\PSoC5/ADC_SAR_X.c **** *
 595:Generated_Source\PSoC5/ADC_SAR_X.c **** * Summary:
 596:Generated_Source\PSoC5/ADC_SAR_X.c **** *  This function calculates the ADC gain in counts per 10 volt.
 597:Generated_Source\PSoC5/ADC_SAR_X.c **** *
 598:Generated_Source\PSoC5/ADC_SAR_X.c **** * Parameters:
 599:Generated_Source\PSoC5/ADC_SAR_X.c **** *  uint8: resolution
 600:Generated_Source\PSoC5/ADC_SAR_X.c **** *
 601:Generated_Source\PSoC5/ADC_SAR_X.c **** * Return:
ARM GAS  C:\Users\Dell\AppData\Local\Temp\ccWrsJ8h.s 			page 12


 602:Generated_Source\PSoC5/ADC_SAR_X.c **** *  None.
 603:Generated_Source\PSoC5/ADC_SAR_X.c **** *
 604:Generated_Source\PSoC5/ADC_SAR_X.c **** * Global Variables:
 605:Generated_Source\PSoC5/ADC_SAR_X.c **** *  ADC_SAR_X_shift variable initialized. This variable is used to
 606:Generated_Source\PSoC5/ADC_SAR_X.c **** *  convert the ADC counts to the 2s compliment form.
 607:Generated_Source\PSoC5/ADC_SAR_X.c **** *  ADC_SAR_X_countsPer10Volt variable initialized. This variable is used
 608:Generated_Source\PSoC5/ADC_SAR_X.c **** *  for gain calibration purpose.
 609:Generated_Source\PSoC5/ADC_SAR_X.c **** *
 610:Generated_Source\PSoC5/ADC_SAR_X.c **** *******************************************************************************/
 611:Generated_Source\PSoC5/ADC_SAR_X.c **** static void ADC_SAR_X_CalcGain( uint8 resolution )
 612:Generated_Source\PSoC5/ADC_SAR_X.c **** {
  27              		.loc 1 612 0
  28              		.cfi_startproc
  29              		@ args = 0, pretend = 0, frame = 0
  30              		@ frame_needed = 0, uses_anonymous_args = 0
  31              	.LVL0:
  32 0000 08B5     		push	{r3, lr}
  33              		.cfi_def_cfa_offset 8
  34              		.cfi_offset 3, -8
  35              		.cfi_offset 14, -4
 613:Generated_Source\PSoC5/ADC_SAR_X.c ****     int32 counts;
 614:Generated_Source\PSoC5/ADC_SAR_X.c ****     #if(!((ADC_SAR_X_DEFAULT_RANGE == ADC_SAR_X__VSS_TO_VREF) || \
 615:Generated_Source\PSoC5/ADC_SAR_X.c ****          (ADC_SAR_X_DEFAULT_RANGE == ADC_SAR_X__VSSA_TO_VDDA) || \
 616:Generated_Source\PSoC5/ADC_SAR_X.c ****          (ADC_SAR_X_DEFAULT_RANGE == ADC_SAR_X__VSSA_TO_VDAC)) )
 617:Generated_Source\PSoC5/ADC_SAR_X.c ****         uint16 diff_zero;
 618:Generated_Source\PSoC5/ADC_SAR_X.c ****     #endif /* End ADC_SAR_X_DEFAULT_RANGE */
 619:Generated_Source\PSoC5/ADC_SAR_X.c **** 
 620:Generated_Source\PSoC5/ADC_SAR_X.c ****     switch (resolution)
  36              		.loc 1 620 0
  37 0002 0A28     		cmp	r0, #10
  38 0004 0FD0     		beq	.L7
  39 0006 0C28     		cmp	r0, #12
  40 0008 02D0     		beq	.L4
  41 000a 0828     		cmp	r0, #8
  42 000c 06D1     		bne	.L8
  43 000e 02E0     		b	.L5
  44              	.L4:
 621:Generated_Source\PSoC5/ADC_SAR_X.c ****     {
 622:Generated_Source\PSoC5/ADC_SAR_X.c ****         case (uint8)ADC_SAR_X__BITS_12:
 623:Generated_Source\PSoC5/ADC_SAR_X.c ****             counts = (int32)ADC_SAR_X_SAR_WRK_MAX_12BIT;
  45              		.loc 1 623 0
  46 0010 4FF48052 		mov	r2, #4096
  47 0014 09E0     		b	.L3
  48              	.L5:
  49              	.LVL1:
 624:Generated_Source\PSoC5/ADC_SAR_X.c ****             #if(!((ADC_SAR_X_DEFAULT_RANGE == ADC_SAR_X__VSS_TO_VREF) || \
 625:Generated_Source\PSoC5/ADC_SAR_X.c ****                  (ADC_SAR_X_DEFAULT_RANGE == ADC_SAR_X__VSSA_TO_VDDA) || \
 626:Generated_Source\PSoC5/ADC_SAR_X.c ****                  (ADC_SAR_X_DEFAULT_RANGE == ADC_SAR_X__VSSA_TO_VDAC)) )
 627:Generated_Source\PSoC5/ADC_SAR_X.c ****                 diff_zero = ADC_SAR_X_SAR_DIFF_SHIFT;
 628:Generated_Source\PSoC5/ADC_SAR_X.c ****             #endif /* End ADC_SAR_X_DEFAULT_RANGE */
 629:Generated_Source\PSoC5/ADC_SAR_X.c ****             break;
 630:Generated_Source\PSoC5/ADC_SAR_X.c ****         case (uint8)ADC_SAR_X__BITS_10:
 631:Generated_Source\PSoC5/ADC_SAR_X.c ****             counts = (int32)ADC_SAR_X_SAR_WRK_MAX_10BIT;
 632:Generated_Source\PSoC5/ADC_SAR_X.c ****             #if(!((ADC_SAR_X_DEFAULT_RANGE == ADC_SAR_X__VSS_TO_VREF) || \
 633:Generated_Source\PSoC5/ADC_SAR_X.c ****                  (ADC_SAR_X_DEFAULT_RANGE == ADC_SAR_X__VSSA_TO_VDDA) || \
 634:Generated_Source\PSoC5/ADC_SAR_X.c ****                  (ADC_SAR_X_DEFAULT_RANGE == ADC_SAR_X__VSSA_TO_VDAC)) )
 635:Generated_Source\PSoC5/ADC_SAR_X.c ****                 diff_zero = ADC_SAR_X_SAR_DIFF_SHIFT >> 2u;
ARM GAS  C:\Users\Dell\AppData\Local\Temp\ccWrsJ8h.s 			page 13


 636:Generated_Source\PSoC5/ADC_SAR_X.c ****             #endif /* End ADC_SAR_X_DEFAULT_RANGE */
 637:Generated_Source\PSoC5/ADC_SAR_X.c ****             break;
 638:Generated_Source\PSoC5/ADC_SAR_X.c ****         case (uint8)ADC_SAR_X__BITS_8:
 639:Generated_Source\PSoC5/ADC_SAR_X.c ****             counts = (int32)ADC_SAR_X_SAR_WRK_MAX_8BIT;
  50              		.loc 1 639 0
  51 0016 4FF48072 		mov	r2, #256
 640:Generated_Source\PSoC5/ADC_SAR_X.c ****             #if(!((ADC_SAR_X_DEFAULT_RANGE == ADC_SAR_X__VSS_TO_VREF) || \
 641:Generated_Source\PSoC5/ADC_SAR_X.c ****                  (ADC_SAR_X_DEFAULT_RANGE == ADC_SAR_X__VSSA_TO_VDDA) || \
 642:Generated_Source\PSoC5/ADC_SAR_X.c ****                  (ADC_SAR_X_DEFAULT_RANGE == ADC_SAR_X__VSSA_TO_VDAC)) )
 643:Generated_Source\PSoC5/ADC_SAR_X.c ****                 diff_zero = ADC_SAR_X_SAR_DIFF_SHIFT >> 4u;
 644:Generated_Source\PSoC5/ADC_SAR_X.c ****             #endif /* End ADC_SAR_X_DEFAULT_RANGE */
 645:Generated_Source\PSoC5/ADC_SAR_X.c ****             break;
  52              		.loc 1 645 0
  53 001a 06E0     		b	.L3
  54              	.LVL2:
  55              	.L8:
 646:Generated_Source\PSoC5/ADC_SAR_X.c ****         default: /* Halt CPU in debug mode if resolution is out of valid range */
 647:Generated_Source\PSoC5/ADC_SAR_X.c ****             counts = 0;
 648:Generated_Source\PSoC5/ADC_SAR_X.c ****             #if(!((ADC_SAR_X_DEFAULT_RANGE == ADC_SAR_X__VSS_TO_VREF) || \
 649:Generated_Source\PSoC5/ADC_SAR_X.c ****                  (ADC_SAR_X_DEFAULT_RANGE == ADC_SAR_X__VSSA_TO_VDDA) || \
 650:Generated_Source\PSoC5/ADC_SAR_X.c ****                  (ADC_SAR_X_DEFAULT_RANGE == ADC_SAR_X__VSSA_TO_VDAC)) )
 651:Generated_Source\PSoC5/ADC_SAR_X.c ****                 diff_zero = 0u;
 652:Generated_Source\PSoC5/ADC_SAR_X.c ****             #endif /* End ADC_SAR_X_DEFAULT_RANGE */
 653:Generated_Source\PSoC5/ADC_SAR_X.c ****             CYASSERT(0u != 0u);
  56              		.loc 1 653 0
  57 001c 0020     		movs	r0, #0
  58              	.LVL3:
  59 001e FFF7FEFF 		bl	CyHalt
  60              	.LVL4:
 647:Generated_Source\PSoC5/ADC_SAR_X.c ****             #if(!((ADC_SAR_X_DEFAULT_RANGE == ADC_SAR_X__VSS_TO_VREF) || \
  61              		.loc 1 647 0
  62 0022 0022     		movs	r2, #0
  63 0024 01E0     		b	.L3
  64              	.LVL5:
  65              	.L7:
 631:Generated_Source\PSoC5/ADC_SAR_X.c ****             #if(!((ADC_SAR_X_DEFAULT_RANGE == ADC_SAR_X__VSS_TO_VREF) || \
  66              		.loc 1 631 0
  67 0026 4FF48062 		mov	r2, #1024
  68              	.LVL6:
  69              	.L3:
 654:Generated_Source\PSoC5/ADC_SAR_X.c ****             break;
 655:Generated_Source\PSoC5/ADC_SAR_X.c ****     }
 656:Generated_Source\PSoC5/ADC_SAR_X.c ****     ADC_SAR_X_countsPerVolt = 0; /* Clear obsolete variable */
  70              		.loc 1 656 0
  71 002a 0021     		movs	r1, #0
  72 002c 084B     		ldr	r3, .L10
  73 002e 1980     		strh	r1, [r3]	@ movhi
 657:Generated_Source\PSoC5/ADC_SAR_X.c ****     /* Calculate gain in counts per 10 volts with rounding */
 658:Generated_Source\PSoC5/ADC_SAR_X.c ****     ADC_SAR_X_countsPer10Volt = (((counts * ADC_SAR_X_10MV_COUNTS) +
  74              		.loc 1 658 0
  75 0030 42F21073 		movw	r3, #10000
  76 0034 03FB02F3 		mul	r3, r3, r2
 659:Generated_Source\PSoC5/ADC_SAR_X.c ****                         ADC_SAR_X_DEFAULT_REF_VOLTAGE_MV) / (ADC_SAR_X_DEFAULT_REF_VOLTAGE_MV * 2))
  77              		.loc 1 659 0
  78 0038 13F58063 		adds	r3, r3, #1024
  79 003c 01D5     		bpl	.L6
  80 003e 03F2FF73 		addw	r3, r3, #2047
ARM GAS  C:\Users\Dell\AppData\Local\Temp\ccWrsJ8h.s 			page 14


  81              	.L6:
  82 0042 DB12     		asrs	r3, r3, #11
 658:Generated_Source\PSoC5/ADC_SAR_X.c ****                         ADC_SAR_X_DEFAULT_REF_VOLTAGE_MV) / (ADC_SAR_X_DEFAULT_REF_VOLTAGE_MV * 2))
  83              		.loc 1 658 0
  84 0044 034A     		ldr	r2, .L10+4
  85              	.LVL7:
  86 0046 1360     		str	r3, [r2]
 660:Generated_Source\PSoC5/ADC_SAR_X.c **** 
 661:Generated_Source\PSoC5/ADC_SAR_X.c ****     #if( (ADC_SAR_X_DEFAULT_RANGE == ADC_SAR_X__VSS_TO_VREF) || \
 662:Generated_Source\PSoC5/ADC_SAR_X.c ****          (ADC_SAR_X_DEFAULT_RANGE == ADC_SAR_X__VSSA_TO_VDDA) || \
 663:Generated_Source\PSoC5/ADC_SAR_X.c ****          (ADC_SAR_X_DEFAULT_RANGE == ADC_SAR_X__VSSA_TO_VDAC) )
 664:Generated_Source\PSoC5/ADC_SAR_X.c ****         ADC_SAR_X_shift = 0;
  87              		.loc 1 664 0
  88 0048 0022     		movs	r2, #0
  89 004a 034B     		ldr	r3, .L10+8
  90 004c 1A80     		strh	r2, [r3]	@ movhi
  91 004e 08BD     		pop	{r3, pc}
  92              	.L11:
  93              		.align	2
  94              	.L10:
  95 0050 00000000 		.word	ADC_SAR_X_countsPerVolt
  96 0054 00000000 		.word	ADC_SAR_X_countsPer10Volt
  97 0058 00000000 		.word	ADC_SAR_X_shift
  98              		.cfi_endproc
  99              	.LFE10:
 100              		.size	ADC_SAR_X_CalcGain, .-ADC_SAR_X_CalcGain
 101              		.section	.text.ADC_SAR_X_Enable,"ax",%progbits
 102              		.align	2
 103              		.global	ADC_SAR_X_Enable
 104              		.thumb
 105              		.thumb_func
 106              		.type	ADC_SAR_X_Enable, %function
 107              	ADC_SAR_X_Enable:
 108              	.LFB2:
 144:Generated_Source\PSoC5/ADC_SAR_X.c ****     uint8 tmpReg;
 109              		.loc 1 144 0
 110              		.cfi_startproc
 111              		@ args = 0, pretend = 0, frame = 0
 112              		@ frame_needed = 0, uses_anonymous_args = 0
 113 0000 38B5     		push	{r3, r4, r5, lr}
 114              		.cfi_def_cfa_offset 16
 115              		.cfi_offset 3, -16
 116              		.cfi_offset 4, -12
 117              		.cfi_offset 5, -8
 118              		.cfi_offset 14, -4
 147:Generated_Source\PSoC5/ADC_SAR_X.c **** 
 119              		.loc 1 147 0
 120 0002 FFF7FEFF 		bl	CyEnterCriticalSection
 121              	.LVL8:
 122 0006 0446     		mov	r4, r0
 123              	.LVL9:
 150:Generated_Source\PSoC5/ADC_SAR_X.c **** 
 124              		.loc 1 150 0
 125 0008 1F4A     		ldr	r2, .L14
 126 000a 1378     		ldrb	r3, [r2]	@ zero_extendqisi2
 127 000c 43F00103 		orr	r3, r3, #1
 128 0010 1370     		strb	r3, [r2]
ARM GAS  C:\Users\Dell\AppData\Local\Temp\ccWrsJ8h.s 			page 15


 153:Generated_Source\PSoC5/ADC_SAR_X.c **** 
 129              		.loc 1 153 0
 130 0012 1032     		adds	r2, r2, #16
 131 0014 1378     		ldrb	r3, [r2]	@ zero_extendqisi2
 132 0016 43F00103 		orr	r3, r3, #1
 133 001a 1370     		strb	r3, [r2]
 157:Generated_Source\PSoC5/ADC_SAR_X.c ****         ADC_SAR_X_STBY_PWRMGR_CLK_REG |= ADC_SAR_X_STBY_PWR_CLK_EN;
 134              		.loc 1 157 0
 135 001c 1A3A     		subs	r2, r2, #26
 136 001e 1378     		ldrb	r3, [r2]	@ zero_extendqisi2
 137 0020 43F00103 		orr	r3, r3, #1
 138 0024 1370     		strb	r3, [r2]
 158:Generated_Source\PSoC5/ADC_SAR_X.c ****     #endif /* End ADC_SAR_X_DEFAULT_INTERNAL_CLK */
 139              		.loc 1 158 0
 140 0026 1032     		adds	r2, r2, #16
 141 0028 1378     		ldrb	r3, [r2]	@ zero_extendqisi2
 142 002a 43F00103 		orr	r3, r3, #1
 143 002e 1370     		strb	r3, [r2]
 162:Generated_Source\PSoC5/ADC_SAR_X.c ****     tmpReg |= ADC_SAR_X_SAR_EN_BUF_VCM_EN;
 144              		.loc 1 162 0
 145 0030 02F5AA52 		add	r2, r2, #5440
 146 0034 1232     		adds	r2, r2, #18
 147 0036 1378     		ldrb	r3, [r2]	@ zero_extendqisi2
 148              	.LVL10:
 149 0038 03F0FE03 		and	r3, r3, #254
 150              	.LVL11:
 167:Generated_Source\PSoC5/ADC_SAR_X.c ****     #else /* In INTREF or INTREF Bypassed this buffer is ON */
 151              		.loc 1 167 0
 152 003c 43F00203 		orr	r3, r3, #2
 153              	.LVL12:
 171:Generated_Source\PSoC5/ADC_SAR_X.c **** 
 154              		.loc 1 171 0
 155 0040 1370     		strb	r3, [r2]
 184:Generated_Source\PSoC5/ADC_SAR_X.c ****         #endif /* ADC_SAR_X_DEFAULT_REFERENCE == ADC_SAR_X__INT_REF_NOT_BYPASSED */
 156              		.loc 1 184 0
 157 0042 0425     		movs	r5, #4
 158 0044 114B     		ldr	r3, .L14+4
 159              	.LVL13:
 160 0046 1D70     		strb	r5, [r3]
 161              	.LVL14:
 192:Generated_Source\PSoC5/ADC_SAR_X.c ****     #endif /* ADC_SAR_X_HIGH_POWER_PULSE == 0u */
 162              		.loc 1 192 0
 163 0048 013B     		subs	r3, r3, #1
 164 004a 1A78     		ldrb	r2, [r3]	@ zero_extendqisi2
 165 004c 42F04002 		orr	r2, r2, #64
 166 0050 1A70     		strb	r2, [r3]
 202:Generated_Source\PSoC5/ADC_SAR_X.c ****     #endif /* ADC_SAR_X_HIGH_POWER_PULSE == 0u */
 167              		.loc 1 202 0
 168 0052 1A78     		ldrb	r2, [r3]	@ zero_extendqisi2
 169 0054 02F0FC02 		and	r2, r2, #252
 170 0058 1A70     		strb	r2, [r3]
 206:Generated_Source\PSoC5/ADC_SAR_X.c ****     /* SAR_HIZ_CLEAR:   Should not be used for LP */
 171              		.loc 1 206 0
 172 005a CE22     		movs	r2, #206
 173 005c 053B     		subs	r3, r3, #5
 174 005e 1A70     		strb	r2, [r3]
 218:Generated_Source\PSoC5/ADC_SAR_X.c **** 
ARM GAS  C:\Users\Dell\AppData\Local\Temp\ccWrsJ8h.s 			page 16


 175              		.loc 1 218 0
 176 0060 0222     		movs	r2, #2
 177 0062 A3F59753 		sub	r3, r3, #4832
 178 0066 0C3B     		subs	r3, r3, #12
 179 0068 1A70     		strb	r2, [r3]
 221:Generated_Source\PSoC5/ADC_SAR_X.c **** 
 180              		.loc 1 221 0
 181 006a 094A     		ldr	r2, .L14+8
 182 006c 1378     		ldrb	r3, [r2]	@ zero_extendqisi2
 183 006e 43F00803 		orr	r3, r3, #8
 184 0072 1370     		strb	r3, [r2]
 223:Generated_Source\PSoC5/ADC_SAR_X.c **** 
 185              		.loc 1 223 0
 186 0074 0A20     		movs	r0, #10
 187 0076 FFF7FEFF 		bl	CyDelayUs
 188              	.LVL15:
 227:Generated_Source\PSoC5/ADC_SAR_X.c ****     #endif   /* End ADC_SAR_X_IRQ_REMOVE */
 189              		.loc 1 227 0
 190 007a 064B     		ldr	r3, .L14+12
 191 007c 1D60     		str	r5, [r3]
 230:Generated_Source\PSoC5/ADC_SAR_X.c **** }
 192              		.loc 1 230 0
 193 007e 2046     		mov	r0, r4
 194 0080 FFF7FEFF 		bl	CyExitCriticalSection
 195              	.LVL16:
 196 0084 38BD     		pop	{r3, r4, r5, pc}
 197              	.LVL17:
 198              	.L15:
 199 0086 00BF     		.align	2
 200              	.L14:
 201 0088 AB430040 		.word	1073759147
 202 008c 06590040 		.word	1073764614
 203 0090 275B0040 		.word	1073765159
 204 0094 80E200E0 		.word	-536812928
 205              		.cfi_endproc
 206              	.LFE2:
 207              		.size	ADC_SAR_X_Enable, .-ADC_SAR_X_Enable
 208              		.section	.text.ADC_SAR_X_Stop,"ax",%progbits
 209              		.align	2
 210              		.global	ADC_SAR_X_Stop
 211              		.thumb
 212              		.thumb_func
 213              		.type	ADC_SAR_X_Stop, %function
 214              	ADC_SAR_X_Stop:
 215              	.LFB3:
 249:Generated_Source\PSoC5/ADC_SAR_X.c ****     uint8 enableInterrupts;
 216              		.loc 1 249 0
 217              		.cfi_startproc
 218              		@ args = 0, pretend = 0, frame = 0
 219              		@ frame_needed = 0, uses_anonymous_args = 0
 220 0000 08B5     		push	{r3, lr}
 221              		.cfi_def_cfa_offset 8
 222              		.cfi_offset 3, -8
 223              		.cfi_offset 14, -4
 251:Generated_Source\PSoC5/ADC_SAR_X.c **** 
 224              		.loc 1 251 0
 225 0002 FFF7FEFF 		bl	CyEnterCriticalSection
ARM GAS  C:\Users\Dell\AppData\Local\Temp\ccWrsJ8h.s 			page 17


 226              	.LVL18:
 254:Generated_Source\PSoC5/ADC_SAR_X.c ****     /* Disable the SAR ADC block in Active Power Mode */
 227              		.loc 1 254 0
 228 0006 0F4A     		ldr	r2, .L18
 229 0008 1378     		ldrb	r3, [r2]	@ zero_extendqisi2
 230 000a 03F0FE03 		and	r3, r3, #254
 231 000e 1370     		strb	r3, [r2]
 256:Generated_Source\PSoC5/ADC_SAR_X.c ****     /* Disable the SAR ADC in Standby Power Mode */
 232              		.loc 1 256 0
 233 0010 A2F5AA52 		sub	r2, r2, #5440
 234 0014 153A     		subs	r2, r2, #21
 235 0016 1378     		ldrb	r3, [r2]	@ zero_extendqisi2
 236 0018 03F0FE03 		and	r3, r3, #254
 237 001c 1370     		strb	r3, [r2]
 258:Generated_Source\PSoC5/ADC_SAR_X.c **** 
 238              		.loc 1 258 0
 239 001e 1032     		adds	r2, r2, #16
 240 0020 1378     		ldrb	r3, [r2]	@ zero_extendqisi2
 241 0022 03F0FE03 		and	r3, r3, #254
 242 0026 1370     		strb	r3, [r2]
 262:Generated_Source\PSoC5/ADC_SAR_X.c ****         ADC_SAR_X_STBY_PWRMGR_CLK_REG &= (uint8)~ADC_SAR_X_STBY_PWR_CLK_EN;
 243              		.loc 1 262 0
 244 0028 1A3A     		subs	r2, r2, #26
 245 002a 1378     		ldrb	r3, [r2]	@ zero_extendqisi2
 246 002c 03F0FE03 		and	r3, r3, #254
 247 0030 1370     		strb	r3, [r2]
 263:Generated_Source\PSoC5/ADC_SAR_X.c ****     #endif /* End ADC_SAR_X_DEFAULT_INTERNAL_CLK */
 248              		.loc 1 263 0
 249 0032 1032     		adds	r2, r2, #16
 250 0034 1378     		ldrb	r3, [r2]	@ zero_extendqisi2
 251 0036 03F0FE03 		and	r3, r3, #254
 252 003a 1370     		strb	r3, [r2]
 266:Generated_Source\PSoC5/ADC_SAR_X.c **** 
 253              		.loc 1 266 0
 254 003c FFF7FEFF 		bl	CyExitCriticalSection
 255              	.LVL19:
 256 0040 08BD     		pop	{r3, pc}
 257              	.L19:
 258 0042 00BF     		.align	2
 259              	.L18:
 260 0044 00590040 		.word	1073764608
 261              		.cfi_endproc
 262              	.LFE3:
 263              		.size	ADC_SAR_X_Stop, .-ADC_SAR_X_Stop
 264              		.section	.text.ADC_SAR_X_SetPower,"ax",%progbits
 265              		.align	2
 266              		.global	ADC_SAR_X_SetPower
 267              		.thumb
 268              		.thumb_func
 269              		.type	ADC_SAR_X_SetPower, %function
 270              	ADC_SAR_X_SetPower:
 271              	.LFB4:
 291:Generated_Source\PSoC5/ADC_SAR_X.c ****     uint8 tmpReg;
 272              		.loc 1 291 0
 273              		.cfi_startproc
 274              		@ args = 0, pretend = 0, frame = 0
 275              		@ frame_needed = 0, uses_anonymous_args = 0
ARM GAS  C:\Users\Dell\AppData\Local\Temp\ccWrsJ8h.s 			page 18


 276              		@ link register save eliminated.
 277              	.LVL20:
 298:Generated_Source\PSoC5/ADC_SAR_X.c ****     tmpReg |= (uint8)(power << ADC_SAR_X_SAR_POWER_SHIFT);
 278              		.loc 1 298 0
 279 0000 044A     		ldr	r2, .L21
 280 0002 1378     		ldrb	r3, [r2]	@ zero_extendqisi2
 281 0004 03F03F03 		and	r3, r3, #63
 282              	.LVL21:
 299:Generated_Source\PSoC5/ADC_SAR_X.c ****     ADC_SAR_X_SAR_CSR0_REG = tmpReg;
 283              		.loc 1 299 0
 284 0008 43EA8010 		orr	r0, r3, r0, lsl #6
 285              	.LVL22:
 286 000c C0B2     		uxtb	r0, r0
 287              	.LVL23:
 300:Generated_Source\PSoC5/ADC_SAR_X.c **** }
 288              		.loc 1 300 0
 289 000e 1070     		strb	r0, [r2]
 290 0010 7047     		bx	lr
 291              	.L22:
 292 0012 00BF     		.align	2
 293              	.L21:
 294 0014 00590040 		.word	1073764608
 295              		.cfi_endproc
 296              	.LFE4:
 297              		.size	ADC_SAR_X_SetPower, .-ADC_SAR_X_SetPower
 298              		.section	.text.ADC_SAR_X_SetResolution,"ax",%progbits
 299              		.align	2
 300              		.global	ADC_SAR_X_SetResolution
 301              		.thumb
 302              		.thumb_func
 303              		.type	ADC_SAR_X_SetResolution, %function
 304              	ADC_SAR_X_SetResolution:
 305              	.LFB5:
 341:Generated_Source\PSoC5/ADC_SAR_X.c ****     uint8 tmpReg;
 306              		.loc 1 341 0
 307              		.cfi_startproc
 308              		@ args = 0, pretend = 0, frame = 0
 309              		@ frame_needed = 0, uses_anonymous_args = 0
 310              	.LVL24:
 311 0000 10B5     		push	{r4, lr}
 312              		.cfi_def_cfa_offset 8
 313              		.cfi_offset 4, -8
 314              		.cfi_offset 14, -4
 315 0002 0446     		mov	r4, r0
 345:Generated_Source\PSoC5/ADC_SAR_X.c ****     {
 316              		.loc 1 345 0
 317 0004 0A28     		cmp	r0, #10
 318 0006 0DD0     		beq	.L28
 319 0008 0C28     		cmp	r0, #12
 320 000a 02D0     		beq	.L26
 321 000c 0828     		cmp	r0, #8
 322 000e 04D1     		bne	.L29
 323 0010 01E0     		b	.L27
 324              	.L26:
 348:Generated_Source\PSoC5/ADC_SAR_X.c ****             break;
 325              		.loc 1 348 0
 326 0012 C422     		movs	r2, #196
ARM GAS  C:\Users\Dell\AppData\Local\Temp\ccWrsJ8h.s 			page 19


 327 0014 07E0     		b	.L25
 328              	.L27:
 329              	.LVL25:
 354:Generated_Source\PSoC5/ADC_SAR_X.c ****             break;
 330              		.loc 1 354 0
 331 0016 4422     		movs	r2, #68
 355:Generated_Source\PSoC5/ADC_SAR_X.c ****         default:
 332              		.loc 1 355 0
 333 0018 05E0     		b	.L25
 334              	.LVL26:
 335              	.L29:
 359:Generated_Source\PSoC5/ADC_SAR_X.c ****             break;
 336              		.loc 1 359 0
 337 001a 0020     		movs	r0, #0
 338              	.LVL27:
 339 001c FFF7FEFF 		bl	CyHalt
 340              	.LVL28:
 357:Generated_Source\PSoC5/ADC_SAR_X.c ****             /* Halt CPU in debug mode if resolution is out of valid range */
 341              		.loc 1 357 0
 342 0020 C422     		movs	r2, #196
 343 0022 00E0     		b	.L25
 344              	.LVL29:
 345              	.L28:
 351:Generated_Source\PSoC5/ADC_SAR_X.c ****             break;
 346              		.loc 1 351 0
 347 0024 8422     		movs	r2, #132
 348              	.LVL30:
 349              	.L25:
 362:Generated_Source\PSoC5/ADC_SAR_X.c **** 
 350              		.loc 1 362 0
 351 0026 034B     		ldr	r3, .L31
 352 0028 1A70     		strb	r2, [r3]
 365:Generated_Source\PSoC5/ADC_SAR_X.c **** }
 353              		.loc 1 365 0
 354 002a 2046     		mov	r0, r4
 355 002c FFF7FEFF 		bl	ADC_SAR_X_CalcGain
 356              	.LVL31:
 357 0030 10BD     		pop	{r4, pc}
 358              	.L32:
 359 0032 00BF     		.align	2
 360              	.L31:
 361 0034 02590040 		.word	1073764610
 362              		.cfi_endproc
 363              	.LFE5:
 364              		.size	ADC_SAR_X_SetResolution, .-ADC_SAR_X_SetResolution
 365              		.section	.text.ADC_SAR_X_Init,"ax",%progbits
 366              		.align	2
 367              		.global	ADC_SAR_X_Init
 368              		.thumb
 369              		.thumb_func
 370              		.type	ADC_SAR_X_Init, %function
 371              	ADC_SAR_X_Init:
 372              	.LFB1:
 107:Generated_Source\PSoC5/ADC_SAR_X.c **** 
 373              		.loc 1 107 0
 374              		.cfi_startproc
 375              		@ args = 0, pretend = 0, frame = 0
ARM GAS  C:\Users\Dell\AppData\Local\Temp\ccWrsJ8h.s 			page 20


 376              		@ frame_needed = 0, uses_anonymous_args = 0
 377 0000 08B5     		push	{r3, lr}
 378              		.cfi_def_cfa_offset 8
 379              		.cfi_offset 3, -8
 380              		.cfi_offset 14, -4
 111:Generated_Source\PSoC5/ADC_SAR_X.c ****     #endif /* End ADC_SAR_X_DEFAULT_INTERNAL_CLK */
 381              		.loc 1 111 0
 382 0002 1020     		movs	r0, #16
 383 0004 FFF7FEFF 		bl	ADC_SAR_X_theACLK_SetModeRegister
 384              	.LVL32:
 116:Generated_Source\PSoC5/ADC_SAR_X.c ****         (void)CyIntSetVector(ADC_SAR_X_INTC_NUMBER, &ADC_SAR_X_ISR);
 385              		.loc 1 116 0
 386 0008 0721     		movs	r1, #7
 387 000a 0220     		movs	r0, #2
 388 000c FFF7FEFF 		bl	CyIntSetPriority
 389              	.LVL33:
 117:Generated_Source\PSoC5/ADC_SAR_X.c ****     #endif   /* End ADC_SAR_X_IRQ_REMOVE */
 390              		.loc 1 117 0
 391 0010 0749     		ldr	r1, .L35
 392 0012 0220     		movs	r0, #2
 393 0014 FFF7FEFF 		bl	CyIntSetVector
 394              	.LVL34:
 121:Generated_Source\PSoC5/ADC_SAR_X.c **** 
 395              		.loc 1 121 0
 396 0018 064A     		ldr	r2, .L35+4
 397 001a 1378     		ldrb	r3, [r2]	@ zero_extendqisi2
 398 001c 43F00603 		orr	r3, r3, #6
 399 0020 1370     		strb	r3, [r2]
 124:Generated_Source\PSoC5/ADC_SAR_X.c ****     ADC_SAR_X_offset = 0;
 400              		.loc 1 124 0
 401 0022 0C20     		movs	r0, #12
 402 0024 FFF7FEFF 		bl	ADC_SAR_X_SetResolution
 403              	.LVL35:
 125:Generated_Source\PSoC5/ADC_SAR_X.c **** }
 404              		.loc 1 125 0
 405 0028 0022     		movs	r2, #0
 406 002a 034B     		ldr	r3, .L35+8
 407 002c 1A80     		strh	r2, [r3]	@ movhi
 408 002e 08BD     		pop	{r3, pc}
 409              	.L36:
 410              		.align	2
 411              	.L35:
 412 0030 00000000 		.word	ADC_SAR_X_ISR
 413 0034 01590040 		.word	1073764609
 414 0038 00000000 		.word	ADC_SAR_X_offset
 415              		.cfi_endproc
 416              	.LFE1:
 417              		.size	ADC_SAR_X_Init, .-ADC_SAR_X_Init
 418              		.section	.text.ADC_SAR_X_Start,"ax",%progbits
 419              		.align	2
 420              		.global	ADC_SAR_X_Start
 421              		.thumb
 422              		.thumb_func
 423              		.type	ADC_SAR_X_Start, %function
 424              	ADC_SAR_X_Start:
 425              	.LFB0:
  75:Generated_Source\PSoC5/ADC_SAR_X.c **** 
ARM GAS  C:\Users\Dell\AppData\Local\Temp\ccWrsJ8h.s 			page 21


 426              		.loc 1 75 0
 427              		.cfi_startproc
 428              		@ args = 0, pretend = 0, frame = 0
 429              		@ frame_needed = 0, uses_anonymous_args = 0
 430 0000 08B5     		push	{r3, lr}
 431              		.cfi_def_cfa_offset 8
 432              		.cfi_offset 3, -8
 433              		.cfi_offset 14, -4
  78:Generated_Source\PSoC5/ADC_SAR_X.c ****     {
 434              		.loc 1 78 0
 435 0002 054B     		ldr	r3, .L40
 436 0004 1B78     		ldrb	r3, [r3]	@ zero_extendqisi2
 437 0006 23B9     		cbnz	r3, .L38
  80:Generated_Source\PSoC5/ADC_SAR_X.c ****         ADC_SAR_X_initVar = 1u;
 438              		.loc 1 80 0
 439 0008 FFF7FEFF 		bl	ADC_SAR_X_Init
 440              	.LVL36:
  81:Generated_Source\PSoC5/ADC_SAR_X.c ****     }
 441              		.loc 1 81 0
 442 000c 0122     		movs	r2, #1
 443 000e 024B     		ldr	r3, .L40
 444 0010 1A70     		strb	r2, [r3]
 445              	.L38:
  83:Generated_Source\PSoC5/ADC_SAR_X.c **** }
 446              		.loc 1 83 0
 447 0012 FFF7FEFF 		bl	ADC_SAR_X_Enable
 448              	.LVL37:
 449 0016 08BD     		pop	{r3, pc}
 450              	.L41:
 451              		.align	2
 452              	.L40:
 453 0018 00000000 		.word	.LANCHOR0
 454              		.cfi_endproc
 455              	.LFE0:
 456              		.size	ADC_SAR_X_Start, .-ADC_SAR_X_Start
 457              		.section	.text.ADC_SAR_X_IsEndConversion,"ax",%progbits
 458              		.align	2
 459              		.global	ADC_SAR_X_IsEndConversion
 460              		.thumb
 461              		.thumb_func
 462              		.type	ADC_SAR_X_IsEndConversion, %function
 463              	ADC_SAR_X_IsEndConversion:
 464              	.LFB6:
 476:Generated_Source\PSoC5/ADC_SAR_X.c ****     uint8 status;
 465              		.loc 1 476 0
 466              		.cfi_startproc
 467              		@ args = 0, pretend = 0, frame = 0
 468              		@ frame_needed = 0, uses_anonymous_args = 0
 469              	.LVL38:
 470 0000 10B5     		push	{r4, lr}
 471              		.cfi_def_cfa_offset 8
 472              		.cfi_offset 4, -8
 473              		.cfi_offset 14, -4
 474              	.L44:
 481:Generated_Source\PSoC5/ADC_SAR_X.c ****     } while ((status != ADC_SAR_X_SAR_EOF_1) && (retMode == ADC_SAR_X_WAIT_FOR_RESULT));
 475              		.loc 1 481 0 discriminator 2
 476 0002 074B     		ldr	r3, .L47
ARM GAS  C:\Users\Dell\AppData\Local\Temp\ccWrsJ8h.s 			page 22


 477 0004 1B78     		ldrb	r3, [r3]	@ zero_extendqisi2
 478              	.LVL39:
 482:Generated_Source\PSoC5/ADC_SAR_X.c ****     /* If convertion complete, wait until EOF bit released */
 479              		.loc 1 482 0 discriminator 2
 480 0006 13F00104 		ands	r4, r3, #1
 481 000a 01D1     		bne	.L43
 482:Generated_Source\PSoC5/ADC_SAR_X.c ****     /* If convertion complete, wait until EOF bit released */
 482              		.loc 1 482 0 is_stmt 0 discriminator 1
 483 000c 0028     		cmp	r0, #0
 484 000e F8D0     		beq	.L44
 485              	.L43:
 484:Generated_Source\PSoC5/ADC_SAR_X.c ****     {
 486              		.loc 1 484 0 is_stmt 1
 487 0010 24B1     		cbz	r4, .L45
 487:Generated_Source\PSoC5/ADC_SAR_X.c ****         /* Do the unconditional read operation of the CSR1 register to make sure the EOC bit has be
 488              		.loc 1 487 0
 489 0012 0120     		movs	r0, #1
 490              	.LVL40:
 491 0014 FFF7FEFF 		bl	CyDelayUs
 492              	.LVL41:
 489:Generated_Source\PSoC5/ADC_SAR_X.c ****     }
 493              		.loc 1 489 0
 494 0018 014B     		ldr	r3, .L47
 495 001a 1B78     		ldrb	r3, [r3]	@ zero_extendqisi2
 496              	.L45:
 493:Generated_Source\PSoC5/ADC_SAR_X.c **** 
 497              		.loc 1 493 0
 498 001c 2046     		mov	r0, r4
 499 001e 10BD     		pop	{r4, pc}
 500              	.L48:
 501              		.align	2
 502              	.L47:
 503 0020 01590040 		.word	1073764609
 504              		.cfi_endproc
 505              	.LFE6:
 506              		.size	ADC_SAR_X_IsEndConversion, .-ADC_SAR_X_IsEndConversion
 507              		.section	.text.ADC_SAR_X_GetResult8,"ax",%progbits
 508              		.align	2
 509              		.global	ADC_SAR_X_GetResult8
 510              		.thumb
 511              		.thumb_func
 512              		.type	ADC_SAR_X_GetResult8, %function
 513              	ADC_SAR_X_GetResult8:
 514              	.LFB7:
 521:Generated_Source\PSoC5/ADC_SAR_X.c ****     return( (int8)ADC_SAR_X_SAR_WRK0_REG - (int8)ADC_SAR_X_shift);
 515              		.loc 1 521 0
 516              		.cfi_startproc
 517              		@ args = 0, pretend = 0, frame = 0
 518              		@ frame_needed = 0, uses_anonymous_args = 0
 519              		@ link register save eliminated.
 522:Generated_Source\PSoC5/ADC_SAR_X.c **** }
 520              		.loc 1 522 0
 521 0000 034B     		ldr	r3, .L50
 522 0002 1B78     		ldrb	r3, [r3]	@ zero_extendqisi2
 523 0004 034A     		ldr	r2, .L50+4
 524 0006 1088     		ldrh	r0, [r2]
 525 0008 00B2     		sxth	r0, r0
ARM GAS  C:\Users\Dell\AppData\Local\Temp\ccWrsJ8h.s 			page 23


 526 000a 181A     		subs	r0, r3, r0
 523:Generated_Source\PSoC5/ADC_SAR_X.c **** 
 527              		.loc 1 523 0
 528 000c 40B2     		sxtb	r0, r0
 529 000e 7047     		bx	lr
 530              	.L51:
 531              		.align	2
 532              	.L50:
 533 0010 A05B0040 		.word	1073765280
 534 0014 00000000 		.word	ADC_SAR_X_shift
 535              		.cfi_endproc
 536              	.LFE7:
 537              		.size	ADC_SAR_X_GetResult8, .-ADC_SAR_X_GetResult8
 538              		.section	.text.ADC_SAR_X_GetResult16,"ax",%progbits
 539              		.align	2
 540              		.global	ADC_SAR_X_GetResult16
 541              		.thumb
 542              		.thumb_func
 543              		.type	ADC_SAR_X_GetResult16, %function
 544              	ADC_SAR_X_GetResult16:
 545              	.LFB8:
 551:Generated_Source\PSoC5/ADC_SAR_X.c ****     uint16 res;
 546              		.loc 1 551 0
 547              		.cfi_startproc
 548              		@ args = 0, pretend = 0, frame = 0
 549              		@ frame_needed = 0, uses_anonymous_args = 0
 550              		@ link register save eliminated.
 554:Generated_Source\PSoC5/ADC_SAR_X.c **** 
 551              		.loc 1 554 0
 552 0000 034B     		ldr	r3, .L53
 553 0002 1888     		ldrh	r0, [r3]
 554 0004 80B2     		uxth	r0, r0
 555              	.LVL42:
 556:Generated_Source\PSoC5/ADC_SAR_X.c **** }
 556              		.loc 1 556 0
 557 0006 034B     		ldr	r3, .L53+4
 558 0008 1B88     		ldrh	r3, [r3]
 559 000a C01A     		subs	r0, r0, r3
 560              	.LVL43:
 557:Generated_Source\PSoC5/ADC_SAR_X.c **** 
 561              		.loc 1 557 0
 562 000c 00B2     		sxth	r0, r0
 563 000e 7047     		bx	lr
 564              	.L54:
 565              		.align	2
 566              	.L53:
 567 0010 A05B0040 		.word	1073765280
 568 0014 00000000 		.word	ADC_SAR_X_shift
 569              		.cfi_endproc
 570              	.LFE8:
 571              		.size	ADC_SAR_X_GetResult16, .-ADC_SAR_X_GetResult16
 572              		.section	.text.ADC_SAR_X_SetOffset,"ax",%progbits
 573              		.align	2
 574              		.global	ADC_SAR_X_SetOffset
 575              		.thumb
 576              		.thumb_func
 577              		.type	ADC_SAR_X_SetOffset, %function
ARM GAS  C:\Users\Dell\AppData\Local\Temp\ccWrsJ8h.s 			page 24


 578              	ADC_SAR_X_SetOffset:
 579              	.LFB9:
 586:Generated_Source\PSoC5/ADC_SAR_X.c ****     ADC_SAR_X_offset = offset;
 580              		.loc 1 586 0
 581              		.cfi_startproc
 582              		@ args = 0, pretend = 0, frame = 0
 583              		@ frame_needed = 0, uses_anonymous_args = 0
 584              		@ link register save eliminated.
 585              	.LVL44:
 587:Generated_Source\PSoC5/ADC_SAR_X.c **** }
 586              		.loc 1 587 0
 587 0000 014B     		ldr	r3, .L56
 588 0002 1880     		strh	r0, [r3]	@ movhi
 589 0004 7047     		bx	lr
 590              	.L57:
 591 0006 00BF     		.align	2
 592              	.L56:
 593 0008 00000000 		.word	ADC_SAR_X_offset
 594              		.cfi_endproc
 595              	.LFE9:
 596              		.size	ADC_SAR_X_SetOffset, .-ADC_SAR_X_SetOffset
 597              		.section	.text.ADC_SAR_X_SetGain,"ax",%progbits
 598              		.align	2
 599              		.global	ADC_SAR_X_SetGain
 600              		.thumb
 601              		.thumb_func
 602              		.type	ADC_SAR_X_SetGain, %function
 603              	ADC_SAR_X_SetGain:
 604              	.LFB11:
 665:Generated_Source\PSoC5/ADC_SAR_X.c ****     #else
 666:Generated_Source\PSoC5/ADC_SAR_X.c ****         ADC_SAR_X_shift = diff_zero;
 667:Generated_Source\PSoC5/ADC_SAR_X.c ****     #endif /* End ADC_SAR_X_DEFAULT_RANGE */
 668:Generated_Source\PSoC5/ADC_SAR_X.c **** }
 669:Generated_Source\PSoC5/ADC_SAR_X.c **** 
 670:Generated_Source\PSoC5/ADC_SAR_X.c **** 
 671:Generated_Source\PSoC5/ADC_SAR_X.c **** /*******************************************************************************
 672:Generated_Source\PSoC5/ADC_SAR_X.c **** * Function Name: ADC_SAR_X_SetGain
 673:Generated_Source\PSoC5/ADC_SAR_X.c **** ********************************************************************************
 674:Generated_Source\PSoC5/ADC_SAR_X.c **** *
 675:Generated_Source\PSoC5/ADC_SAR_X.c **** * Summary:
 676:Generated_Source\PSoC5/ADC_SAR_X.c **** *  Sets the ADC gain in counts per volt for the voltage conversion functions
 677:Generated_Source\PSoC5/ADC_SAR_X.c **** *  that follow. This value is set by default by the reference and input range
 678:Generated_Source\PSoC5/ADC_SAR_X.c **** *  settings. It should only be used to further calibrate the ADC with a known
 679:Generated_Source\PSoC5/ADC_SAR_X.c **** *  input or if the ADC is using an external reference.
 680:Generated_Source\PSoC5/ADC_SAR_X.c **** *
 681:Generated_Source\PSoC5/ADC_SAR_X.c **** * Parameters:
 682:Generated_Source\PSoC5/ADC_SAR_X.c **** *  int16 adcGain counts per volt
 683:Generated_Source\PSoC5/ADC_SAR_X.c **** *
 684:Generated_Source\PSoC5/ADC_SAR_X.c **** * Return:
 685:Generated_Source\PSoC5/ADC_SAR_X.c **** *  None.
 686:Generated_Source\PSoC5/ADC_SAR_X.c **** *
 687:Generated_Source\PSoC5/ADC_SAR_X.c **** * Global Variables:
 688:Generated_Source\PSoC5/ADC_SAR_X.c **** *  ADC_SAR_X_countsPer10Volt variable modified. This variable is used
 689:Generated_Source\PSoC5/ADC_SAR_X.c **** *  for gain calibration purpose.
 690:Generated_Source\PSoC5/ADC_SAR_X.c **** *
 691:Generated_Source\PSoC5/ADC_SAR_X.c **** *******************************************************************************/
 692:Generated_Source\PSoC5/ADC_SAR_X.c **** void ADC_SAR_X_SetGain(int16 adcGain)
ARM GAS  C:\Users\Dell\AppData\Local\Temp\ccWrsJ8h.s 			page 25


 693:Generated_Source\PSoC5/ADC_SAR_X.c **** {
 605              		.loc 1 693 0
 606              		.cfi_startproc
 607              		@ args = 0, pretend = 0, frame = 0
 608              		@ frame_needed = 0, uses_anonymous_args = 0
 609              		@ link register save eliminated.
 610              	.LVL45:
 694:Generated_Source\PSoC5/ADC_SAR_X.c ****     ADC_SAR_X_countsPer10Volt = (int32)adcGain * 10;
 611              		.loc 1 694 0
 612 0000 00EB8000 		add	r0, r0, r0, lsl #2
 613              	.LVL46:
 614 0004 4300     		lsls	r3, r0, #1
 615 0006 014A     		ldr	r2, .L59
 616 0008 1360     		str	r3, [r2]
 617 000a 7047     		bx	lr
 618              	.L60:
 619              		.align	2
 620              	.L59:
 621 000c 00000000 		.word	ADC_SAR_X_countsPer10Volt
 622              		.cfi_endproc
 623              	.LFE11:
 624              		.size	ADC_SAR_X_SetGain, .-ADC_SAR_X_SetGain
 625              		.section	.text.ADC_SAR_X_SetScaledGain,"ax",%progbits
 626              		.align	2
 627              		.global	ADC_SAR_X_SetScaledGain
 628              		.thumb
 629              		.thumb_func
 630              		.type	ADC_SAR_X_SetScaledGain, %function
 631              	ADC_SAR_X_SetScaledGain:
 632              	.LFB12:
 695:Generated_Source\PSoC5/ADC_SAR_X.c **** }
 696:Generated_Source\PSoC5/ADC_SAR_X.c **** 
 697:Generated_Source\PSoC5/ADC_SAR_X.c **** 
 698:Generated_Source\PSoC5/ADC_SAR_X.c **** /*******************************************************************************
 699:Generated_Source\PSoC5/ADC_SAR_X.c **** * Function Name: ADC_SAR_X_SetScaledGain
 700:Generated_Source\PSoC5/ADC_SAR_X.c **** ********************************************************************************
 701:Generated_Source\PSoC5/ADC_SAR_X.c **** *
 702:Generated_Source\PSoC5/ADC_SAR_X.c **** * Summary:
 703:Generated_Source\PSoC5/ADC_SAR_X.c **** *  Sets the ADC gain in counts per 10 volt for the voltage conversion functions
 704:Generated_Source\PSoC5/ADC_SAR_X.c **** *  that follow. This value is set by default by the reference and input range
 705:Generated_Source\PSoC5/ADC_SAR_X.c **** *  settings. It should only be used to further calibrate the ADC with a known
 706:Generated_Source\PSoC5/ADC_SAR_X.c **** *  input or if the ADC is using an external reference.
 707:Generated_Source\PSoC5/ADC_SAR_X.c **** *
 708:Generated_Source\PSoC5/ADC_SAR_X.c **** * Parameters:
 709:Generated_Source\PSoC5/ADC_SAR_X.c **** *  int32 adcGain  counts per 10 volt
 710:Generated_Source\PSoC5/ADC_SAR_X.c **** *
 711:Generated_Source\PSoC5/ADC_SAR_X.c **** * Return:
 712:Generated_Source\PSoC5/ADC_SAR_X.c **** *  None.
 713:Generated_Source\PSoC5/ADC_SAR_X.c **** *
 714:Generated_Source\PSoC5/ADC_SAR_X.c **** * Global Variables:
 715:Generated_Source\PSoC5/ADC_SAR_X.c **** *  ADC_SAR_X_countsPer10Volt variable modified. This variable is used
 716:Generated_Source\PSoC5/ADC_SAR_X.c **** *  for gain calibration purpose.
 717:Generated_Source\PSoC5/ADC_SAR_X.c **** *
 718:Generated_Source\PSoC5/ADC_SAR_X.c **** *******************************************************************************/
 719:Generated_Source\PSoC5/ADC_SAR_X.c **** void ADC_SAR_X_SetScaledGain(int32 adcGain)
 720:Generated_Source\PSoC5/ADC_SAR_X.c **** {
 633              		.loc 1 720 0
ARM GAS  C:\Users\Dell\AppData\Local\Temp\ccWrsJ8h.s 			page 26


 634              		.cfi_startproc
 635              		@ args = 0, pretend = 0, frame = 0
 636              		@ frame_needed = 0, uses_anonymous_args = 0
 637              		@ link register save eliminated.
 638              	.LVL47:
 721:Generated_Source\PSoC5/ADC_SAR_X.c ****     ADC_SAR_X_countsPer10Volt = adcGain;
 639              		.loc 1 721 0
 640 0000 014B     		ldr	r3, .L62
 641 0002 1860     		str	r0, [r3]
 642 0004 7047     		bx	lr
 643              	.L63:
 644 0006 00BF     		.align	2
 645              	.L62:
 646 0008 00000000 		.word	ADC_SAR_X_countsPer10Volt
 647              		.cfi_endproc
 648              	.LFE12:
 649              		.size	ADC_SAR_X_SetScaledGain, .-ADC_SAR_X_SetScaledGain
 650              		.section	.text.ADC_SAR_X_CountsTo_mVolts,"ax",%progbits
 651              		.align	2
 652              		.global	ADC_SAR_X_CountsTo_mVolts
 653              		.thumb
 654              		.thumb_func
 655              		.type	ADC_SAR_X_CountsTo_mVolts, %function
 656              	ADC_SAR_X_CountsTo_mVolts:
 657              	.LFB13:
 722:Generated_Source\PSoC5/ADC_SAR_X.c **** }
 723:Generated_Source\PSoC5/ADC_SAR_X.c **** 
 724:Generated_Source\PSoC5/ADC_SAR_X.c **** 
 725:Generated_Source\PSoC5/ADC_SAR_X.c **** /*******************************************************************************
 726:Generated_Source\PSoC5/ADC_SAR_X.c **** * Function Name: ADC_SAR_X_CountsTo_mVolts
 727:Generated_Source\PSoC5/ADC_SAR_X.c **** ********************************************************************************
 728:Generated_Source\PSoC5/ADC_SAR_X.c **** *
 729:Generated_Source\PSoC5/ADC_SAR_X.c **** * Summary:
 730:Generated_Source\PSoC5/ADC_SAR_X.c **** *  Converts the ADC output to millivolts as a 16-bit integer.
 731:Generated_Source\PSoC5/ADC_SAR_X.c **** *
 732:Generated_Source\PSoC5/ADC_SAR_X.c **** * Parameters:
 733:Generated_Source\PSoC5/ADC_SAR_X.c **** *  int16 adcCounts:  Result from the ADC conversion
 734:Generated_Source\PSoC5/ADC_SAR_X.c **** *
 735:Generated_Source\PSoC5/ADC_SAR_X.c **** * Return:
 736:Generated_Source\PSoC5/ADC_SAR_X.c **** *  int16 Result in mVolts
 737:Generated_Source\PSoC5/ADC_SAR_X.c **** *
 738:Generated_Source\PSoC5/ADC_SAR_X.c **** * Global Variables:
 739:Generated_Source\PSoC5/ADC_SAR_X.c **** *  ADC_SAR_X_offset variable used.
 740:Generated_Source\PSoC5/ADC_SAR_X.c **** *  ADC_SAR_X_countsPer10Volt variable used.
 741:Generated_Source\PSoC5/ADC_SAR_X.c **** *
 742:Generated_Source\PSoC5/ADC_SAR_X.c **** *******************************************************************************/
 743:Generated_Source\PSoC5/ADC_SAR_X.c **** int16 ADC_SAR_X_CountsTo_mVolts(int16 adcCounts)
 744:Generated_Source\PSoC5/ADC_SAR_X.c **** {
 658              		.loc 1 744 0
 659              		.cfi_startproc
 660              		@ args = 0, pretend = 0, frame = 0
 661              		@ frame_needed = 0, uses_anonymous_args = 0
 662              		@ link register save eliminated.
 663              	.LVL48:
 664 0000 10B4     		push	{r4}
 665              		.cfi_def_cfa_offset 4
 666              		.cfi_offset 4, -4
ARM GAS  C:\Users\Dell\AppData\Local\Temp\ccWrsJ8h.s 			page 27


 745:Generated_Source\PSoC5/ADC_SAR_X.c ****     int16 mVolts;
 746:Generated_Source\PSoC5/ADC_SAR_X.c ****     int32 countsPer10Volt;
 747:Generated_Source\PSoC5/ADC_SAR_X.c **** 
 748:Generated_Source\PSoC5/ADC_SAR_X.c ****     if(ADC_SAR_X_countsPerVolt != 0)
 667              		.loc 1 748 0
 668 0002 124B     		ldr	r3, .L70
 669 0004 1B88     		ldrh	r3, [r3]
 670 0006 1BB2     		sxth	r3, r3
 671 0008 33B1     		cbz	r3, .L65
 749:Generated_Source\PSoC5/ADC_SAR_X.c ****     {   /* Support obsolete method */
 750:Generated_Source\PSoC5/ADC_SAR_X.c ****         countsPer10Volt = (int32)ADC_SAR_X_countsPerVolt * 10;
 672              		.loc 1 750 0
 673 000a 104B     		ldr	r3, .L70
 674 000c 1B88     		ldrh	r3, [r3]
 675 000e 1BB2     		sxth	r3, r3
 676 0010 03EB8303 		add	r3, r3, r3, lsl #2
 677 0014 5C00     		lsls	r4, r3, #1
 678              	.LVL49:
 679 0016 01E0     		b	.L66
 680              	.LVL50:
 681              	.L65:
 751:Generated_Source\PSoC5/ADC_SAR_X.c ****     }
 752:Generated_Source\PSoC5/ADC_SAR_X.c ****     else
 753:Generated_Source\PSoC5/ADC_SAR_X.c ****     {
 754:Generated_Source\PSoC5/ADC_SAR_X.c ****         countsPer10Volt = ADC_SAR_X_countsPer10Volt;
 682              		.loc 1 754 0
 683 0018 0D4B     		ldr	r3, .L70+4
 684 001a 1C68     		ldr	r4, [r3]
 685              	.LVL51:
 686              	.L66:
 755:Generated_Source\PSoC5/ADC_SAR_X.c ****     }
 756:Generated_Source\PSoC5/ADC_SAR_X.c **** 
 757:Generated_Source\PSoC5/ADC_SAR_X.c ****     /* Subtract ADC offset */
 758:Generated_Source\PSoC5/ADC_SAR_X.c ****     adcCounts -= ADC_SAR_X_offset;
 687              		.loc 1 758 0
 688 001c 0D4B     		ldr	r3, .L70+8
 689 001e 1988     		ldrh	r1, [r3]
 690 0020 411A     		subs	r1, r0, r1
 691 0022 09B2     		sxth	r1, r1
 692              	.LVL52:
 759:Generated_Source\PSoC5/ADC_SAR_X.c ****     /* Convert to millivolts with rounding */
 760:Generated_Source\PSoC5/ADC_SAR_X.c ****     mVolts = (int16)( (( (int32)adcCounts * ADC_SAR_X_10MV_COUNTS ) + ( (adcCounts > 0) ?
 693              		.loc 1 760 0
 694 0024 42F21073 		movw	r3, #10000
 695 0028 03FB01F2 		mul	r2, r3, r1
 761:Generated_Source\PSoC5/ADC_SAR_X.c ****                        (countsPer10Volt / 2) : (-(countsPer10Volt / 2)) )) / countsPer10Volt);
 696              		.loc 1 761 0
 697 002c 0029     		cmp	r1, #0
 698 002e 03DD     		ble	.L67
 699              		.loc 1 761 0 is_stmt 0 discriminator 1
 700 0030 04EBD470 		add	r0, r4, r4, lsr #31
 701 0034 4010     		asrs	r0, r0, #1
 702 0036 03E0     		b	.L68
 703              	.L67:
 704              		.loc 1 761 0 discriminator 2
 705 0038 04EBD470 		add	r0, r4, r4, lsr #31
 706 003c 4010     		asrs	r0, r0, #1
ARM GAS  C:\Users\Dell\AppData\Local\Temp\ccWrsJ8h.s 			page 28


 707 003e 4042     		negs	r0, r0
 708              	.L68:
 760:Generated_Source\PSoC5/ADC_SAR_X.c ****                        (countsPer10Volt / 2) : (-(countsPer10Volt / 2)) )) / countsPer10Volt);
 709              		.loc 1 760 0 is_stmt 1
 710 0040 8318     		adds	r3, r0, r2
 711              		.loc 1 761 0
 712 0042 93FBF4F0 		sdiv	r0, r3, r4
 713              	.LVL53:
 762:Generated_Source\PSoC5/ADC_SAR_X.c **** 
 763:Generated_Source\PSoC5/ADC_SAR_X.c ****     return( mVolts );
 764:Generated_Source\PSoC5/ADC_SAR_X.c **** }
 714              		.loc 1 764 0
 715 0046 00B2     		sxth	r0, r0
 716 0048 10BC     		pop	{r4}
 717              		.cfi_restore 4
 718              		.cfi_def_cfa_offset 0
 719              	.LVL54:
 720 004a 7047     		bx	lr
 721              	.L71:
 722              		.align	2
 723              	.L70:
 724 004c 00000000 		.word	ADC_SAR_X_countsPerVolt
 725 0050 00000000 		.word	ADC_SAR_X_countsPer10Volt
 726 0054 00000000 		.word	ADC_SAR_X_offset
 727              		.cfi_endproc
 728              	.LFE13:
 729              		.size	ADC_SAR_X_CountsTo_mVolts, .-ADC_SAR_X_CountsTo_mVolts
 730              		.global	__aeabi_ldivmod
 731              		.section	.text.ADC_SAR_X_CountsTo_uVolts,"ax",%progbits
 732              		.align	2
 733              		.global	ADC_SAR_X_CountsTo_uVolts
 734              		.thumb
 735              		.thumb_func
 736              		.type	ADC_SAR_X_CountsTo_uVolts, %function
 737              	ADC_SAR_X_CountsTo_uVolts:
 738              	.LFB14:
 765:Generated_Source\PSoC5/ADC_SAR_X.c **** 
 766:Generated_Source\PSoC5/ADC_SAR_X.c **** 
 767:Generated_Source\PSoC5/ADC_SAR_X.c **** /*******************************************************************************
 768:Generated_Source\PSoC5/ADC_SAR_X.c **** * Function Name: ADC_SAR_X_CountsTo_uVolts
 769:Generated_Source\PSoC5/ADC_SAR_X.c **** ********************************************************************************
 770:Generated_Source\PSoC5/ADC_SAR_X.c **** *
 771:Generated_Source\PSoC5/ADC_SAR_X.c **** * Summary:
 772:Generated_Source\PSoC5/ADC_SAR_X.c **** *  Converts the ADC output to microvolts as a 32-bit integer.
 773:Generated_Source\PSoC5/ADC_SAR_X.c **** *
 774:Generated_Source\PSoC5/ADC_SAR_X.c **** * Parameters:
 775:Generated_Source\PSoC5/ADC_SAR_X.c **** *  int16 adcCounts: Result from the ADC conversion
 776:Generated_Source\PSoC5/ADC_SAR_X.c **** *
 777:Generated_Source\PSoC5/ADC_SAR_X.c **** * Return:
 778:Generated_Source\PSoC5/ADC_SAR_X.c **** *  int32 Result in micro Volts
 779:Generated_Source\PSoC5/ADC_SAR_X.c **** *
 780:Generated_Source\PSoC5/ADC_SAR_X.c **** * Global Variables:
 781:Generated_Source\PSoC5/ADC_SAR_X.c **** *  ADC_SAR_X_offset variable used.
 782:Generated_Source\PSoC5/ADC_SAR_X.c **** *  ADC_SAR_X_countsPer10Volt used to convert ADC counts to uVolts.
 783:Generated_Source\PSoC5/ADC_SAR_X.c **** *
 784:Generated_Source\PSoC5/ADC_SAR_X.c **** *******************************************************************************/
 785:Generated_Source\PSoC5/ADC_SAR_X.c **** int32 ADC_SAR_X_CountsTo_uVolts(int16 adcCounts)
ARM GAS  C:\Users\Dell\AppData\Local\Temp\ccWrsJ8h.s 			page 29


 786:Generated_Source\PSoC5/ADC_SAR_X.c **** {
 739              		.loc 1 786 0
 740              		.cfi_startproc
 741              		@ args = 0, pretend = 0, frame = 0
 742              		@ frame_needed = 0, uses_anonymous_args = 0
 743              	.LVL55:
 744 0000 38B5     		push	{r3, r4, r5, lr}
 745              		.cfi_def_cfa_offset 16
 746              		.cfi_offset 3, -16
 747              		.cfi_offset 4, -12
 748              		.cfi_offset 5, -8
 749              		.cfi_offset 14, -4
 787:Generated_Source\PSoC5/ADC_SAR_X.c **** 
 788:Generated_Source\PSoC5/ADC_SAR_X.c ****     int64 uVolts;
 789:Generated_Source\PSoC5/ADC_SAR_X.c ****     int32 countsPer10Volt;
 790:Generated_Source\PSoC5/ADC_SAR_X.c **** 
 791:Generated_Source\PSoC5/ADC_SAR_X.c ****     if(ADC_SAR_X_countsPerVolt != 0)
 750              		.loc 1 791 0
 751 0002 0D4B     		ldr	r3, .L76
 752 0004 1B88     		ldrh	r3, [r3]
 753 0006 1BB2     		sxth	r3, r3
 754 0008 33B1     		cbz	r3, .L73
 792:Generated_Source\PSoC5/ADC_SAR_X.c ****     {   /* Support obsolete method */
 793:Generated_Source\PSoC5/ADC_SAR_X.c ****         countsPer10Volt = (int32)ADC_SAR_X_countsPerVolt * 10;
 755              		.loc 1 793 0
 756 000a 0B4B     		ldr	r3, .L76
 757 000c 1B88     		ldrh	r3, [r3]
 758 000e 1BB2     		sxth	r3, r3
 759 0010 03EB8303 		add	r3, r3, r3, lsl #2
 760 0014 5A00     		lsls	r2, r3, #1
 761              	.LVL56:
 762 0016 01E0     		b	.L74
 763              	.LVL57:
 764              	.L73:
 794:Generated_Source\PSoC5/ADC_SAR_X.c ****     }
 795:Generated_Source\PSoC5/ADC_SAR_X.c ****     else
 796:Generated_Source\PSoC5/ADC_SAR_X.c ****     {
 797:Generated_Source\PSoC5/ADC_SAR_X.c ****         countsPer10Volt = ADC_SAR_X_countsPer10Volt;
 765              		.loc 1 797 0
 766 0018 084B     		ldr	r3, .L76+4
 767 001a 1A68     		ldr	r2, [r3]
 768              	.LVL58:
 769              	.L74:
 798:Generated_Source\PSoC5/ADC_SAR_X.c ****     }
 799:Generated_Source\PSoC5/ADC_SAR_X.c **** 
 800:Generated_Source\PSoC5/ADC_SAR_X.c ****     /* Subtract ADC offset */
 801:Generated_Source\PSoC5/ADC_SAR_X.c ****     adcCounts -= ADC_SAR_X_offset;
 770              		.loc 1 801 0
 771 001c 084B     		ldr	r3, .L76+8
 772 001e 1C88     		ldrh	r4, [r3]
 773 0020 041B     		subs	r4, r0, r4
 774              	.LVL59:
 802:Generated_Source\PSoC5/ADC_SAR_X.c ****     /* To convert adcCounts to microVolts it is required to be multiplied
 803:Generated_Source\PSoC5/ADC_SAR_X.c ****     *  on 10 million and later divide on gain in counts per 10V.
 804:Generated_Source\PSoC5/ADC_SAR_X.c ****     */
 805:Generated_Source\PSoC5/ADC_SAR_X.c ****     uVolts = (( (int64)adcCounts * ADC_SAR_X_10UV_COUNTS ) / countsPer10Volt);
 775              		.loc 1 805 0
ARM GAS  C:\Users\Dell\AppData\Local\Temp\ccWrsJ8h.s 			page 30


 776 0022 24B2     		sxth	r4, r4
 777 0024 E517     		asrs	r5, r4, #31
 778 0026 074B     		ldr	r3, .L76+12
 779 0028 A4FB0301 		umull	r0, r1, r4, r3
 780 002c 03FB0511 		mla	r1, r3, r5, r1
 781 0030 D317     		asrs	r3, r2, #31
 782 0032 FFF7FEFF 		bl	__aeabi_ldivmod
 783              	.LVL60:
 806:Generated_Source\PSoC5/ADC_SAR_X.c **** 
 807:Generated_Source\PSoC5/ADC_SAR_X.c ****     return((int32) uVolts );
 808:Generated_Source\PSoC5/ADC_SAR_X.c **** }
 784              		.loc 1 808 0
 785 0036 38BD     		pop	{r3, r4, r5, pc}
 786              	.LVL61:
 787              	.L77:
 788              		.align	2
 789              	.L76:
 790 0038 00000000 		.word	ADC_SAR_X_countsPerVolt
 791 003c 00000000 		.word	ADC_SAR_X_countsPer10Volt
 792 0040 00000000 		.word	ADC_SAR_X_offset
 793 0044 80969800 		.word	10000000
 794              		.cfi_endproc
 795              	.LFE14:
 796              		.size	ADC_SAR_X_CountsTo_uVolts, .-ADC_SAR_X_CountsTo_uVolts
 797              		.global	__aeabi_i2f
 798              		.global	__aeabi_fmul
 799              		.global	__aeabi_fdiv
 800              		.section	.text.ADC_SAR_X_CountsTo_Volts,"ax",%progbits
 801              		.align	2
 802              		.global	ADC_SAR_X_CountsTo_Volts
 803              		.thumb
 804              		.thumb_func
 805              		.type	ADC_SAR_X_CountsTo_Volts, %function
 806              	ADC_SAR_X_CountsTo_Volts:
 807              	.LFB15:
 809:Generated_Source\PSoC5/ADC_SAR_X.c **** 
 810:Generated_Source\PSoC5/ADC_SAR_X.c **** 
 811:Generated_Source\PSoC5/ADC_SAR_X.c **** /*******************************************************************************
 812:Generated_Source\PSoC5/ADC_SAR_X.c **** * Function Name: ADC_SAR_X_CountsTo_Volts
 813:Generated_Source\PSoC5/ADC_SAR_X.c **** ********************************************************************************
 814:Generated_Source\PSoC5/ADC_SAR_X.c **** *
 815:Generated_Source\PSoC5/ADC_SAR_X.c **** * Summary:
 816:Generated_Source\PSoC5/ADC_SAR_X.c **** *  Converts the ADC output to volts as a floating-point number.
 817:Generated_Source\PSoC5/ADC_SAR_X.c **** *
 818:Generated_Source\PSoC5/ADC_SAR_X.c **** * Parameters:
 819:Generated_Source\PSoC5/ADC_SAR_X.c **** *  int16 adcCounts: Result from the ADC conversion
 820:Generated_Source\PSoC5/ADC_SAR_X.c **** *
 821:Generated_Source\PSoC5/ADC_SAR_X.c **** * Return:
 822:Generated_Source\PSoC5/ADC_SAR_X.c **** *  float Result in Volts
 823:Generated_Source\PSoC5/ADC_SAR_X.c **** *
 824:Generated_Source\PSoC5/ADC_SAR_X.c **** * Global Variables:
 825:Generated_Source\PSoC5/ADC_SAR_X.c **** *  ADC_SAR_X_offset variable used.
 826:Generated_Source\PSoC5/ADC_SAR_X.c **** *  ADC_SAR_X_countsPer10Volt used to convert ADC counts to Volts.
 827:Generated_Source\PSoC5/ADC_SAR_X.c **** *
 828:Generated_Source\PSoC5/ADC_SAR_X.c **** *******************************************************************************/
 829:Generated_Source\PSoC5/ADC_SAR_X.c **** float32 ADC_SAR_X_CountsTo_Volts(int16 adcCounts)
 830:Generated_Source\PSoC5/ADC_SAR_X.c **** {
ARM GAS  C:\Users\Dell\AppData\Local\Temp\ccWrsJ8h.s 			page 31


 808              		.loc 1 830 0
 809              		.cfi_startproc
 810              		@ args = 0, pretend = 0, frame = 0
 811              		@ frame_needed = 0, uses_anonymous_args = 0
 812              	.LVL62:
 813 0000 38B5     		push	{r3, r4, r5, lr}
 814              		.cfi_def_cfa_offset 16
 815              		.cfi_offset 3, -16
 816              		.cfi_offset 4, -12
 817              		.cfi_offset 5, -8
 818              		.cfi_offset 14, -4
 831:Generated_Source\PSoC5/ADC_SAR_X.c ****     float32 volts;
 832:Generated_Source\PSoC5/ADC_SAR_X.c ****     int32 countsPer10Volt;
 833:Generated_Source\PSoC5/ADC_SAR_X.c **** 
 834:Generated_Source\PSoC5/ADC_SAR_X.c ****     if(ADC_SAR_X_countsPerVolt != 0)
 819              		.loc 1 834 0
 820 0002 0F4B     		ldr	r3, .L82
 821 0004 1B88     		ldrh	r3, [r3]
 822 0006 1BB2     		sxth	r3, r3
 823 0008 33B1     		cbz	r3, .L79
 835:Generated_Source\PSoC5/ADC_SAR_X.c ****     {   /* Support obsolete method */
 836:Generated_Source\PSoC5/ADC_SAR_X.c ****         countsPer10Volt = (int32)ADC_SAR_X_countsPerVolt * 10;
 824              		.loc 1 836 0
 825 000a 0D4B     		ldr	r3, .L82
 826 000c 1B88     		ldrh	r3, [r3]
 827 000e 1BB2     		sxth	r3, r3
 828 0010 03EB8303 		add	r3, r3, r3, lsl #2
 829 0014 5C00     		lsls	r4, r3, #1
 830              	.LVL63:
 831 0016 01E0     		b	.L80
 832              	.LVL64:
 833              	.L79:
 837:Generated_Source\PSoC5/ADC_SAR_X.c ****     }
 838:Generated_Source\PSoC5/ADC_SAR_X.c ****     else
 839:Generated_Source\PSoC5/ADC_SAR_X.c ****     {
 840:Generated_Source\PSoC5/ADC_SAR_X.c ****         countsPer10Volt = ADC_SAR_X_countsPer10Volt;
 834              		.loc 1 840 0
 835 0018 0A4B     		ldr	r3, .L82+4
 836 001a 1C68     		ldr	r4, [r3]
 837              	.LVL65:
 838              	.L80:
 841:Generated_Source\PSoC5/ADC_SAR_X.c ****     }
 842:Generated_Source\PSoC5/ADC_SAR_X.c **** 
 843:Generated_Source\PSoC5/ADC_SAR_X.c ****     /* Subtract ADC offset */
 844:Generated_Source\PSoC5/ADC_SAR_X.c ****     adcCounts -= ADC_SAR_X_offset;
 839              		.loc 1 844 0
 840 001c 0A4B     		ldr	r3, .L82+8
 841 001e 1B88     		ldrh	r3, [r3]
 842 0020 C01A     		subs	r0, r0, r3
 843              	.LVL66:
 845:Generated_Source\PSoC5/ADC_SAR_X.c **** 
 846:Generated_Source\PSoC5/ADC_SAR_X.c ****     volts = ((float32)adcCounts * ADC_SAR_X_10V_COUNTS) / (float32)countsPer10Volt;
 844              		.loc 1 846 0
 845 0022 00B2     		sxth	r0, r0
 846 0024 FFF7FEFF 		bl	__aeabi_i2f
 847              	.LVL67:
 848 0028 0849     		ldr	r1, .L82+12
ARM GAS  C:\Users\Dell\AppData\Local\Temp\ccWrsJ8h.s 			page 32


 849 002a FFF7FEFF 		bl	__aeabi_fmul
 850              	.LVL68:
 851 002e 0546     		mov	r5, r0
 852 0030 2046     		mov	r0, r4
 853 0032 FFF7FEFF 		bl	__aeabi_i2f
 854              	.LVL69:
 855 0036 0146     		mov	r1, r0
 856 0038 2846     		mov	r0, r5
 857 003a FFF7FEFF 		bl	__aeabi_fdiv
 858              	.LVL70:
 847:Generated_Source\PSoC5/ADC_SAR_X.c **** 
 848:Generated_Source\PSoC5/ADC_SAR_X.c ****     return( volts );
 849:Generated_Source\PSoC5/ADC_SAR_X.c **** }
 859              		.loc 1 849 0
 860 003e 38BD     		pop	{r3, r4, r5, pc}
 861              	.LVL71:
 862              	.L83:
 863              		.align	2
 864              	.L82:
 865 0040 00000000 		.word	ADC_SAR_X_countsPerVolt
 866 0044 00000000 		.word	ADC_SAR_X_countsPer10Volt
 867 0048 00000000 		.word	ADC_SAR_X_offset
 868 004c 00002041 		.word	1092616192
 869              		.cfi_endproc
 870              	.LFE15:
 871              		.size	ADC_SAR_X_CountsTo_Volts, .-ADC_SAR_X_CountsTo_Volts
 872              		.comm	ADC_SAR_X_shift,2,2
 873              		.comm	ADC_SAR_X_countsPer10Volt,4,4
 874              		.comm	ADC_SAR_X_countsPerVolt,2,2
 875              		.comm	ADC_SAR_X_offset,2,2
 876              		.global	ADC_SAR_X_initVar
 877              		.bss
 878              		.set	.LANCHOR0,. + 0
 879              		.type	ADC_SAR_X_initVar, %object
 880              		.size	ADC_SAR_X_initVar, 1
 881              	ADC_SAR_X_initVar:
 882 0000 00       		.space	1
 883              		.text
 884              	.Letext0:
 885              		.file 2 "Generated_Source\\PSoC5\\cytypes.h"
 886              		.file 3 "Generated_Source\\PSoC5\\CyLib.h"
 887              		.file 4 "Generated_Source\\PSoC5\\ADC_SAR_X_theACLK.h"