ARM GAS  C:\Users\Dell\AppData\Local\Temp\ccpNozWw.s 			page 1


   1              		.syntax unified
   2              		.cpu cortex-m3
   3              		.fpu softvfp
   4              		.eabi_attribute 20, 1
   5              		.eabi_attribute 21, 1
   6              		.eabi_attribute 23, 3
   7              		.eabi_attribute 24, 1
   8              		.eabi_attribute 25, 1
   9              		.eabi_attribute 26, 1
  10              		.eabi_attribute 30, 1
  11              		.eabi_attribute 34, 1
  12              		.eabi_attribute 18, 4
  13              		.thumb
  14              		.syntax unified
  15              		.file	"bsp.c"
  16              		.text
  17              	.Ltext0:
  18              		.cfi_sections	.debug_frame
  19              		.section	.text.testSaveSlot,"ax",%progbits
  20              		.align	2
  21              		.global	testSaveSlot
  22              		.thumb
  23              		.thumb_func
  24              		.type	testSaveSlot, %function
  25              	testSaveSlot:
  26              	.LFB64:
  27              		.file 1 "bsp.c"
   1:bsp.c         **** /* ========================================
   2:bsp.c         ****  *
   3:bsp.c         ****  * Copyright YOUR COMPANY, THE YEAR
   4:bsp.c         ****  * All Rights Reserved
   5:bsp.c         ****  * UNPUBLISHED, LICENSED SOFTWARE.
   6:bsp.c         ****  *
   7:bsp.c         ****  * CONFIDENTIAL AND PROPRIETARY INFORMATION
   8:bsp.c         ****  * WHICH IS THE PROPERTY OF your company.
   9:bsp.c         ****  *
  10:bsp.c         ****  * ========================================
  11:bsp.c         **** */
  12:bsp.c         **** #include "bsp.h"
  13:bsp.c         **** #include "eeprom.h"
  14:bsp.c         **** #include "rotation.h"
  15:bsp.c         **** #include <stdio.h>
  16:bsp.c         ****     
  17:bsp.c         **** bool testSaveSlot(uint8 id){
  28              		.loc 1 17 0
  29              		.cfi_startproc
  30              		@ args = 0, pretend = 0, frame = 0
  31              		@ frame_needed = 0, uses_anonymous_args = 0
  32              	.LVL0:
  33 0000 10B5     		push	{r4, lr}
  34              		.cfi_def_cfa_offset 8
  35              		.cfi_offset 4, -8
  36              		.cfi_offset 14, -4
  37 0002 0446     		mov	r4, r0
  18:bsp.c         ****     uint16 tmp = loadWord(0x05);
  38              		.loc 1 18 0
  39 0004 0520     		movs	r0, #5
ARM GAS  C:\Users\Dell\AppData\Local\Temp\ccpNozWw.s 			page 2


  40              	.LVL1:
  41 0006 FFF7FEFF 		bl	loadWord
  42              	.LVL2:
  19:bsp.c         ****     return (tmp & (1 << (id - 1)));
  43              		.loc 1 19 0
  44 000a 013C     		subs	r4, r4, #1
  45 000c 0123     		movs	r3, #1
  46 000e A340     		lsls	r3, r3, r4
  47 0010 1842     		tst	r0, r3
  20:bsp.c         **** }
  48              		.loc 1 20 0
  49 0012 14BF     		ite	ne
  50 0014 0120     		movne	r0, #1
  51              	.LVL3:
  52 0016 0020     		moveq	r0, #0
  53 0018 10BD     		pop	{r4, pc}
  54              		.cfi_endproc
  55              	.LFE64:
  56              		.size	testSaveSlot, .-testSaveSlot
  57 001a 00BF     		.section	.text.listSaveSlots,"ax",%progbits
  58              		.align	2
  59              		.global	listSaveSlots
  60              		.thumb
  61              		.thumb_func
  62              		.type	listSaveSlots, %function
  63              	listSaveSlots:
  64              	.LFB65:
  21:bsp.c         **** 
  22:bsp.c         **** void listSaveSlots(){
  65              		.loc 1 22 0
  66              		.cfi_startproc
  67              		@ args = 0, pretend = 0, frame = 16
  68              		@ frame_needed = 0, uses_anonymous_args = 0
  69 0000 70B5     		push	{r4, r5, r6, lr}
  70              		.cfi_def_cfa_offset 16
  71              		.cfi_offset 4, -16
  72              		.cfi_offset 5, -12
  73              		.cfi_offset 6, -8
  74              		.cfi_offset 14, -4
  75 0002 84B0     		sub	sp, sp, #16
  76              		.cfi_def_cfa_offset 32
  23:bsp.c         ****     uint16 tmp = loadWord(0x05);
  77              		.loc 1 23 0
  78 0004 0520     		movs	r0, #5
  79 0006 FFF7FEFF 		bl	loadWord
  80              	.LVL4:
  81 000a 0646     		mov	r6, r0
  82              	.LVL5:
  83              	.LBB2:
  24:bsp.c         ****     uint16 mask = 1;
  25:bsp.c         ****     for(int i = 1; i <= 16; i++){
  84              		.loc 1 25 0
  85 000c 0125     		movs	r5, #1
  86              	.LBE2:
  24:bsp.c         ****     uint16 mask = 1;
  87              		.loc 1 24 0
  88 000e 2C46     		mov	r4, r5
ARM GAS  C:\Users\Dell\AppData\Local\Temp\ccpNozWw.s 			page 3


  89              	.LBB4:
  90              		.loc 1 25 0
  91 0010 0EE0     		b	.L4
  92              	.LVL6:
  93              	.L5:
  94              	.LBB3:
  26:bsp.c         ****         char str[10];
  27:bsp.c         ****         sprintf(str, "%2d.: %d\r\n", i, ((0 != (tmp & mask)) ? 1 : 0));
  95              		.loc 1 27 0 discriminator 3
  96 0012 3442     		tst	r4, r6
  97 0014 14BF     		ite	ne
  98 0016 0123     		movne	r3, #1
  99 0018 0023     		moveq	r3, #0
 100 001a 2A46     		mov	r2, r5
 101 001c 0649     		ldr	r1, .L7
 102 001e 01A8     		add	r0, sp, #4
 103 0020 FFF7FEFF 		bl	sprintf
 104              	.LVL7:
  28:bsp.c         ****         UART_PutString(str);
 105              		.loc 1 28 0 discriminator 3
 106 0024 01A8     		add	r0, sp, #4
 107 0026 FFF7FEFF 		bl	UART_PutString
 108              	.LVL8:
  29:bsp.c         ****         mask = mask << 1;
 109              		.loc 1 29 0 discriminator 3
 110 002a 6400     		lsls	r4, r4, #1
 111              	.LVL9:
 112 002c A4B2     		uxth	r4, r4
 113              	.LVL10:
 114              	.LBE3:
  25:bsp.c         ****         char str[10];
 115              		.loc 1 25 0 discriminator 3
 116 002e 0135     		adds	r5, r5, #1
 117              	.LVL11:
 118              	.L4:
  25:bsp.c         ****         char str[10];
 119              		.loc 1 25 0 is_stmt 0 discriminator 1
 120 0030 102D     		cmp	r5, #16
 121 0032 EEDD     		ble	.L5
 122              	.LBE4:
  30:bsp.c         ****     }
  31:bsp.c         **** }
 123              		.loc 1 31 0 is_stmt 1
 124 0034 04B0     		add	sp, sp, #16
 125              		.cfi_def_cfa_offset 16
 126              		@ sp needed
 127 0036 70BD     		pop	{r4, r5, r6, pc}
 128              	.LVL12:
 129              	.L8:
 130              		.align	2
 131              	.L7:
 132 0038 00000000 		.word	.LC0
 133              		.cfi_endproc
 134              	.LFE65:
 135              		.size	listSaveSlots, .-listSaveSlots
 136              		.global	__aeabi_i2f
 137              		.global	__aeabi_fdiv
ARM GAS  C:\Users\Dell\AppData\Local\Temp\ccpNozWw.s 			page 4


 138              		.global	__aeabi_f2iz
 139              		.section	.text.saveSlotDetails,"ax",%progbits
 140              		.align	2
 141              		.global	saveSlotDetails
 142              		.thumb
 143              		.thumb_func
 144              		.type	saveSlotDetails, %function
 145              	saveSlotDetails:
 146              	.LFB66:
  32:bsp.c         **** 
  33:bsp.c         **** void saveSlotDetails(uint8 id){   
 147              		.loc 1 33 0
 148              		.cfi_startproc
 149              		@ args = 0, pretend = 0, frame = 32
 150              		@ frame_needed = 0, uses_anonymous_args = 0
 151              	.LVL13:
 152 0000 30B5     		push	{r4, r5, lr}
 153              		.cfi_def_cfa_offset 12
 154              		.cfi_offset 4, -12
 155              		.cfi_offset 5, -8
 156              		.cfi_offset 14, -4
 157 0002 89B0     		sub	sp, sp, #36
 158              		.cfi_def_cfa_offset 48
 159 0004 0446     		mov	r4, r0
  34:bsp.c         ****     if(testSaveSlot(id)){
 160              		.loc 1 34 0
 161 0006 FFF7FEFF 		bl	testSaveSlot
 162              	.LVL14:
 163 000a 60B3     		cbz	r0, .L10
 164              	.LBB5:
  35:bsp.c         ****         id -= 1;
 165              		.loc 1 35 0
 166 000c 013C     		subs	r4, r4, #1
 167 000e E4B2     		uxtb	r4, r4
 168              	.LVL15:
  36:bsp.c         ****         uint16 x = loadWord(0x06 + id*4);
 169              		.loc 1 36 0
 170 0010 A000     		lsls	r0, r4, #2
 171 0012 0630     		adds	r0, r0, #6
 172 0014 00F0FE00 		and	r0, r0, #254
 173 0018 FFF7FEFF 		bl	loadWord
 174              	.LVL16:
 175 001c 0546     		mov	r5, r0
 176              	.LVL17:
  37:bsp.c         ****         uint16 y = loadWord(0x06 + id*4 + 0x02);
 177              		.loc 1 37 0
 178 001e 0234     		adds	r4, r4, #2
 179              	.LVL18:
 180 0020 A000     		lsls	r0, r4, #2
 181 0022 00F0FC00 		and	r0, r0, #252
 182 0026 FFF7FEFF 		bl	loadWord
 183              	.LVL19:
 184 002a 0446     		mov	r4, r0
 185              	.LVL20:
  38:bsp.c         ****         
  39:bsp.c         ****         char str[32];
  40:bsp.c         ****         sprintf(str, "Home: X=%d Y=%d\r\n", (int)AS5600_TO_ANGULAR(x), (int)AS5600_TO_ANGULAR(y));
ARM GAS  C:\Users\Dell\AppData\Local\Temp\ccpNozWw.s 			page 5


 186              		.loc 1 40 0
 187 002c 2846     		mov	r0, r5
 188 002e FFF7FEFF 		bl	__aeabi_i2f
 189              	.LVL21:
 190 0032 0F49     		ldr	r1, .L13
 191 0034 FFF7FEFF 		bl	__aeabi_fdiv
 192              	.LVL22:
 193 0038 0546     		mov	r5, r0
 194              	.LVL23:
 195 003a 2046     		mov	r0, r4
 196 003c FFF7FEFF 		bl	__aeabi_i2f
 197              	.LVL24:
 198 0040 0B49     		ldr	r1, .L13
 199 0042 FFF7FEFF 		bl	__aeabi_fdiv
 200              	.LVL25:
 201 0046 FFF7FEFF 		bl	__aeabi_f2iz
 202              	.LVL26:
 203 004a 0446     		mov	r4, r0
 204              	.LVL27:
 205 004c 2846     		mov	r0, r5
 206 004e FFF7FEFF 		bl	__aeabi_f2iz
 207              	.LVL28:
 208 0052 2346     		mov	r3, r4
 209 0054 0246     		mov	r2, r0
 210 0056 0749     		ldr	r1, .L13+4
 211 0058 6846     		mov	r0, sp
 212 005a FFF7FEFF 		bl	sprintf
 213              	.LVL29:
  41:bsp.c         ****         UART_PutString(str);
 214              		.loc 1 41 0
 215 005e 6846     		mov	r0, sp
 216 0060 FFF7FEFF 		bl	UART_PutString
 217              	.LVL30:
 218              	.LBE5:
 219 0064 02E0     		b	.L9
 220              	.LVL31:
 221              	.L10:
  42:bsp.c         ****     } else {
  43:bsp.c         ****         UART_PutString("Save slot empty.");
 222              		.loc 1 43 0
 223 0066 0448     		ldr	r0, .L13+8
 224 0068 FFF7FEFF 		bl	UART_PutString
 225              	.LVL32:
 226              	.L9:
  44:bsp.c         ****     }               
  45:bsp.c         ****     
  46:bsp.c         **** }
 227              		.loc 1 46 0
 228 006c 09B0     		add	sp, sp, #36
 229              		.cfi_def_cfa_offset 12
 230              		@ sp needed
 231 006e 30BD     		pop	{r4, r5, pc}
 232              	.L14:
 233              		.align	2
 234              	.L13:
 235 0070 610B3641 		.word	1094060897
 236 0074 0C000000 		.word	.LC1
ARM GAS  C:\Users\Dell\AppData\Local\Temp\ccpNozWw.s 			page 6


 237 0078 20000000 		.word	.LC2
 238              		.cfi_endproc
 239              	.LFE66:
 240              		.size	saveSlotDetails, .-saveSlotDetails
 241              		.section	.text.saveToSaveSlot,"ax",%progbits
 242              		.align	2
 243              		.global	saveToSaveSlot
 244              		.thumb
 245              		.thumb_func
 246              		.type	saveToSaveSlot, %function
 247              	saveToSaveSlot:
 248              	.LFB67:
  47:bsp.c         **** 
  48:bsp.c         **** void saveToSaveSlot(uint8 id){
 249              		.loc 1 48 0
 250              		.cfi_startproc
 251              		@ args = 0, pretend = 0, frame = 16
 252              		@ frame_needed = 0, uses_anonymous_args = 0
 253              	.LVL33:
 254 0000 30B5     		push	{r4, r5, lr}
 255              		.cfi_def_cfa_offset 12
 256              		.cfi_offset 4, -12
 257              		.cfi_offset 5, -8
 258              		.cfi_offset 14, -4
 259 0002 85B0     		sub	sp, sp, #20
 260              		.cfi_def_cfa_offset 32
 261 0004 0446     		mov	r4, r0
  49:bsp.c         ****     ROTATOR_STATE rotator_state = getRotation();
 262              		.loc 1 49 0
 263 0006 6846     		mov	r0, sp
 264              	.LVL34:
 265 0008 FFF7FEFF 		bl	getRotation
 266              	.LVL35:
  50:bsp.c         ****     saveWord(rotator_state.x_des, 0x06 + (id - 1) * 4);
 267              		.loc 1 50 0
 268 000c 611E     		subs	r1, r4, #1
 269 000e 8900     		lsls	r1, r1, #2
 270 0010 0631     		adds	r1, r1, #6
 271 0012 01F0FE01 		and	r1, r1, #254
 272 0016 BDF80000 		ldrh	r0, [sp]
 273 001a FFF7FEFF 		bl	saveWord
 274              	.LVL36:
  51:bsp.c         ****     saveWord(rotator_state.y_des, 0x06 + (id - 1) * 4 + 0x02);
 275              		.loc 1 51 0
 276 001e 651C     		adds	r5, r4, #1
 277 0020 A900     		lsls	r1, r5, #2
 278 0022 01F0FC01 		and	r1, r1, #252
 279 0026 BDF80400 		ldrh	r0, [sp, #4]
 280 002a FFF7FEFF 		bl	saveWord
 281              	.LVL37:
  52:bsp.c         ****     if(!testSaveSlot(id+1)){
 282              		.loc 1 52 0
 283 002e E8B2     		uxtb	r0, r5
 284 0030 FFF7FEFF 		bl	testSaveSlot
 285              	.LVL38:
 286 0034 50B9     		cbnz	r0, .L15
 287              	.LBB6:
ARM GAS  C:\Users\Dell\AppData\Local\Temp\ccpNozWw.s 			page 7


  53:bsp.c         ****         uint16 tmp = loadWord(0x05);
 288              		.loc 1 53 0
 289 0036 0520     		movs	r0, #5
 290 0038 FFF7FEFF 		bl	loadWord
 291              	.LVL39:
  54:bsp.c         ****         tmp = tmp + (1 << id);
 292              		.loc 1 54 0
 293 003c 0123     		movs	r3, #1
 294 003e 03FA04F4 		lsl	r4, r3, r4
 295 0042 2044     		add	r0, r0, r4
 296              	.LVL40:
  55:bsp.c         ****         saveWord(tmp, 0x05);
 297              		.loc 1 55 0
 298 0044 0521     		movs	r1, #5
 299 0046 80B2     		uxth	r0, r0
 300 0048 FFF7FEFF 		bl	saveWord
 301              	.LVL41:
 302              	.L15:
 303              	.LBE6:
  56:bsp.c         ****     }
  57:bsp.c         **** }
 304              		.loc 1 57 0
 305 004c 05B0     		add	sp, sp, #20
 306              		.cfi_def_cfa_offset 12
 307              		@ sp needed
 308 004e 30BD     		pop	{r4, r5, pc}
 309              		.cfi_endproc
 310              	.LFE67:
 311              		.size	saveToSaveSlot, .-saveToSaveSlot
 312              		.section	.text.moveToSaveSlot,"ax",%progbits
 313              		.align	2
 314              		.global	moveToSaveSlot
 315              		.thumb
 316              		.thumb_func
 317              		.type	moveToSaveSlot, %function
 318              	moveToSaveSlot:
 319              	.LFB68:
  58:bsp.c         **** 
  59:bsp.c         **** void moveToSaveSlot(uint8 id){
 320              		.loc 1 59 0
 321              		.cfi_startproc
 322              		@ args = 0, pretend = 0, frame = 0
 323              		@ frame_needed = 0, uses_anonymous_args = 0
 324              	.LVL42:
 325 0000 38B5     		push	{r3, r4, r5, lr}
 326              		.cfi_def_cfa_offset 16
 327              		.cfi_offset 3, -16
 328              		.cfi_offset 4, -12
 329              		.cfi_offset 5, -8
 330              		.cfi_offset 14, -4
 331 0002 0446     		mov	r4, r0
  60:bsp.c         ****     if(testSaveSlot(id)){
 332              		.loc 1 60 0
 333 0004 FFF7FEFF 		bl	testSaveSlot
 334              	.LVL43:
 335 0008 90B1     		cbz	r0, .L19
  61:bsp.c         ****         setRotation(loadWord(0x06 + (id-1)*4), loadWord(0x06 + (id-1)*4 + 0x02));
ARM GAS  C:\Users\Dell\AppData\Local\Temp\ccpNozWw.s 			page 8


 336              		.loc 1 61 0
 337 000a 601E     		subs	r0, r4, #1
 338 000c 8000     		lsls	r0, r0, #2
 339 000e 0630     		adds	r0, r0, #6
 340 0010 00F0FE00 		and	r0, r0, #254
 341 0014 FFF7FEFF 		bl	loadWord
 342              	.LVL44:
 343 0018 0546     		mov	r5, r0
 344 001a 601C     		adds	r0, r4, #1
 345 001c 8000     		lsls	r0, r0, #2
 346 001e 00F0FC00 		and	r0, r0, #252
 347 0022 FFF7FEFF 		bl	loadWord
 348              	.LVL45:
 349 0026 0146     		mov	r1, r0
 350 0028 2846     		mov	r0, r5
 351 002a FFF7FEFF 		bl	setRotation
 352              	.LVL46:
 353 002e 38BD     		pop	{r3, r4, r5, pc}
 354              	.L19:
  62:bsp.c         ****     } else {
  63:bsp.c         ****         UART_PutString("Save slot empty.");
 355              		.loc 1 63 0
 356 0030 0148     		ldr	r0, .L22
 357 0032 FFF7FEFF 		bl	UART_PutString
 358              	.LVL47:
 359 0036 38BD     		pop	{r3, r4, r5, pc}
 360              	.L23:
 361              		.align	2
 362              	.L22:
 363 0038 20000000 		.word	.LC2
 364              		.cfi_endproc
 365              	.LFE68:
 366              		.size	moveToSaveSlot, .-moveToSaveSlot
 367              		.section	.rodata.str1.4,"aMS",%progbits,1
 368              		.align	2
 369              	.LC0:
 370 0000 2532642E 		.ascii	"%2d.: %d\015\012\000"
 370      3A202564 
 370      0D0A00
 371 000b 00       		.space	1
 372              	.LC1:
 373 000c 486F6D65 		.ascii	"Home: X=%d Y=%d\015\012\000"
 373      3A20583D 
 373      25642059 
 373      3D25640D 
 373      0A00
 374 001e 0000     		.space	2
 375              	.LC2:
 376 0020 53617665 		.ascii	"Save slot empty.\000"
 376      20736C6F 
 376      7420656D 
 376      7074792E 
 376      00
 377              		.text
 378              	.Letext0:
 379              		.file 2 "c:\\program files (x86)\\cypress\\psoc creator\\4.4\\psoc creator\\import\\gnu\\arm\\5.4.
 380              		.file 3 "c:\\program files (x86)\\cypress\\psoc creator\\4.4\\psoc creator\\import\\gnu\\arm\\5.4.
ARM GAS  C:\Users\Dell\AppData\Local\Temp\ccpNozWw.s 			page 9


 381              		.file 4 "Generated_Source\\PSoC5/cytypes.h"
 382              		.file 5 "rotation.h"
 383              		.file 6 "eeprom.h"
 384              		.file 7 "c:\\program files (x86)\\cypress\\psoc creator\\4.4\\psoc creator\\import\\gnu\\arm\\5.4.
 385              		.file 8 "Generated_Source\\PSoC5/UART.h"
 386              		.file 9 "Generated_Source\\PSoC5/core_cm3.h"