ARM GAS  C:\Users\Dell\AppData\Local\Temp\cc7rf4Ck.s 			page 1


   1              		.syntax unified
   2              		.cpu cortex-m3
   3              		.fpu softvfp
   4              		.eabi_attribute 20, 1
   5              		.eabi_attribute 21, 1
   6              		.eabi_attribute 23, 3
   7              		.eabi_attribute 24, 1
   8              		.eabi_attribute 25, 1
   9              		.eabi_attribute 26, 1
  10              		.eabi_attribute 30, 1
  11              		.eabi_attribute 34, 1
  12              		.eabi_attribute 18, 4
  13              		.thumb
  14              		.syntax unified
  15              		.file	"cli.c"
  16              		.text
  17              	.Ltext0:
  18              		.cfi_sections	.debug_frame
  19              		.section	.text.ResetInput,"ax",%progbits
  20              		.align	2
  21              		.global	ResetInput
  22              		.thumb
  23              		.thumb_func
  24              		.type	ResetInput, %function
  25              	ResetInput:
  26              	.LFB67:
  27              		.file 1 "cli.c"
   1:cli.c         **** /* ========================================
   2:cli.c         ****  *
   3:cli.c         ****  * Copyright YOUR COMPANY, THE YEAR
   4:cli.c         ****  * All Rights Reserved
   5:cli.c         ****  * UNPUBLISHED, LICENSED SOFTWARE.
   6:cli.c         ****  *
   7:cli.c         ****  * CONFIDENTIAL AND PROPRIETARY INFORMATION
   8:cli.c         ****  * WHICH IS THE PROPERTY OF your company.
   9:cli.c         ****  *
  10:cli.c         ****  * ========================================
  11:cli.c         **** */
  12:cli.c         **** #include "cli.h"
  13:cli.c         **** #include "eeprom.h"
  14:cli.c         **** #include "bsp.h"
  15:cli.c         **** #include "rotation.h"
  16:cli.c         **** 
  17:cli.c         **** enum READ_STATE readState = CMD;
  18:cli.c         **** 
  19:cli.c         **** void CLI_Init(){
  20:cli.c         ****     ResetInput(&readState, &cmd, &arg1, &arg2, &arg3);
  21:cli.c         **** }
  22:cli.c         **** 
  23:cli.c         **** void CLI_Update(){
  24:cli.c         ****     char inChar = UART_GetChar();
  25:cli.c         ****         if(inChar != 0){
  26:cli.c         ****             UART_PutChar(inChar);
  27:cli.c         ****             bool error = false;
  28:cli.c         ****             switch(inChar){
  29:cli.c         ****                 case 13:
  30:cli.c         ****                     UART_PutString("\r\n");
ARM GAS  C:\Users\Dell\AppData\Local\Temp\cc7rf4Ck.s 			page 2


  31:cli.c         ****                     readState = CMD;
  32:cli.c         ****                     error = ProcessCommand();
  33:cli.c         ****                     if(!error){
  34:cli.c         ****                         ResetInput();
  35:cli.c         ****                     }
  36:cli.c         ****                     break;
  37:cli.c         ****                 case 32:
  38:cli.c         ****                     switch(readState){
  39:cli.c         ****                         case CMD:
  40:cli.c         ****                             readState = ARG1;
  41:cli.c         ****                             break;
  42:cli.c         ****                         case ARG1:
  43:cli.c         ****                             readState = ARG2;
  44:cli.c         ****                             break;
  45:cli.c         ****                         case ARG2:
  46:cli.c         ****                             readState = ARG3;
  47:cli.c         ****                             break;
  48:cli.c         ****                         case ARG3:
  49:cli.c         ****                             error = true;
  50:cli.c         ****                             break;
  51:cli.c         ****                     }
  52:cli.c         ****                     break;
  53:cli.c         ****                 default:
  54:cli.c         ****                     switch(readState){
  55:cli.c         ****                         case CMD:
  56:cli.c         ****                             error = AddCommandChar(inChar, &cmd);
  57:cli.c         ****                             break;
  58:cli.c         ****                         case ARG1:
  59:cli.c         ****                             error = AddArgumentDigit(inChar, &arg1);
  60:cli.c         ****                             break;
  61:cli.c         ****                         case ARG2:
  62:cli.c         ****                             error = AddArgumentDigit(inChar, &arg2);
  63:cli.c         ****                             break;
  64:cli.c         ****                         case ARG3:
  65:cli.c         ****                             error = AddArgumentDigit(inChar, &arg3);
  66:cli.c         ****                             break;
  67:cli.c         ****                     }
  68:cli.c         ****                     break;
  69:cli.c         ****             }
  70:cli.c         ****          
  71:cli.c         ****             if(error){
  72:cli.c         ****                 ResetInput();
  73:cli.c         ****                 UART_PutString("Error, resetting input processor.\r\n");
  74:cli.c         ****             }
  75:cli.c         ****         }
  76:cli.c         **** }
  77:cli.c         **** 
  78:cli.c         **** bool ProcessCommand(){
  79:cli.c         ****     if(cmd.cnt == 4) {
  80:cli.c         ****         ROTATOR_STATE rotator_state = getRotation();
  81:cli.c         ****         if(!strcmp(cmd.data, "rhom")){
  82:cli.c         ****             
  83:cli.c         ****             if(arg1.cnt == 0 && arg2.cnt == 0 && arg3.cnt == 0){
  84:cli.c         ****                 uint16 x = loadWord(0x01);
  85:cli.c         ****                 uint16 y = loadWord(0x03);
  86:cli.c         ****                 
  87:cli.c         ****                 char str[32];
ARM GAS  C:\Users\Dell\AppData\Local\Temp\cc7rf4Ck.s 			page 3


  88:cli.c         ****                 sprintf(str, "Home: X=%d Y=%d\r\n", (int)AS5600_TO_ANGULAR(x), (int)AS5600_TO_ANGUL
  89:cli.c         ****                 UART_PutString(str);
  90:cli.c         ****                 return false;
  91:cli.c         ****             }
  92:cli.c         ****             return true;
  93:cli.c         ****             
  94:cli.c         ****         } else if(!strcmp(cmd.data, "rhor")){
  95:cli.c         ****             
  96:cli.c         ****             if(arg1.cnt == 0 && arg2.cnt == 0 && arg3.cnt == 0){
  97:cli.c         ****                 bool tmp;
  98:cli.c         ****                 tmp = testBit(0, 0x00);
  99:cli.c         ****                 
 100:cli.c         ****                 char str[32];
 101:cli.c         ****                 sprintf(str, "Home on restart: %d\r\n", tmp);
 102:cli.c         ****                 UART_PutString(str);
 103:cli.c         ****                 return false;
 104:cli.c         ****             }
 105:cli.c         ****             return true;
 106:cli.c         ****             
 107:cli.c         ****         } else if(!strcmp(cmd.data, "ract")){
 108:cli.c         ****             
 109:cli.c         ****             if(arg1.cnt == 0 && arg2.cnt == 0 && arg3.cnt == 0){
 110:cli.c         ****                 char str[32];
 111:cli.c         ****                 sprintf(str, "Home: X=%d Y=%d\r\n",  (int)AS5600_TO_ANGULAR(rotator_state.x_act), (
 112:cli.c         ****                 UART_PutString(str);
 113:cli.c         ****                 return false;
 114:cli.c         ****             }
 115:cli.c         ****             return true;
 116:cli.c         ****             
 117:cli.c         ****         } else if(!strcmp(cmd.data, "rpos")){
 118:cli.c         ****             
 119:cli.c         ****             if(arg1.cnt == 0 && arg2.cnt == 0 && arg3.cnt == 0){
 120:cli.c         ****                 char str[32];
 121:cli.c         ****                 sprintf(str, "Home: X=%d Y=%d\r\n",  (int)AS5600_TO_ANGULAR(rotator_state.x_des), (
 122:cli.c         ****                 UART_PutString(str);
 123:cli.c         ****                 return false;
 124:cli.c         ****             }
 125:cli.c         ****             return true;
 126:cli.c         ****             
 127:cli.c         ****         } else if(!strcmp(cmd.data, "rsos")){
 128:cli.c         ****             
 129:cli.c         ****             if(arg1.cnt == 0 && arg2.cnt == 0 && arg3.cnt == 0){
 130:cli.c         ****                 bool tmp;
 131:cli.c         ****                 tmp = testBit(1, 0x00);
 132:cli.c         ****                 
 133:cli.c         ****                 char str[32];
 134:cli.c         ****                 sprintf(str, "Signal on restart: %d\r\n", tmp);
 135:cli.c         ****                 UART_PutString(str);
 136:cli.c         ****                 return false;
 137:cli.c         ****             }
 138:cli.c         ****             return true;
 139:cli.c         ****             
 140:cli.c         ****         }else if(!strcmp(cmd.data, "whom")){
 141:cli.c         ****             
 142:cli.c         ****             if(arg1.cnt > 0 && arg2.cnt > 0 && arg3.cnt == 0){              
 143:cli.c         ****                 uint16 x = ParseArgument(&arg1);
 144:cli.c         ****                 if(x > 360) {x = 360;}
ARM GAS  C:\Users\Dell\AppData\Local\Temp\cc7rf4Ck.s 			page 4


 145:cli.c         ****                 x = AS5600_FROM_ANGULAR(x);
 146:cli.c         ****                 saveWord(x, 0x01);
 147:cli.c         ****                 
 148:cli.c         ****                 uint16 y = ParseArgument(&arg2);
 149:cli.c         ****                 if(y > 360) {y = 360;}
 150:cli.c         ****                 y = AS5600_FROM_ANGULAR(y);
 151:cli.c         ****                 saveWord(y, 0x03);
 152:cli.c         ****                 
 153:cli.c         ****                 return false;
 154:cli.c         ****             }
 155:cli.c         ****             return true;
 156:cli.c         ****             
 157:cli.c         ****         } else if(!strcmp(cmd.data, "whor")){
 158:cli.c         ****             
 159:cli.c         ****             if(arg1.cnt > 0 && arg2.cnt == 0 && arg3.cnt == 0){
 160:cli.c         ****                 setBit((ParseArgument(&arg1) > 0), 0, 0x00);
 161:cli.c         ****                 return false;
 162:cli.c         ****             }
 163:cli.c         ****             return true;
 164:cli.c         ****             
 165:cli.c         ****         } else if(!strcmp(cmd.data, "wpos")){
 166:cli.c         ****             
 167:cli.c         ****             if(arg1.cnt > 0 && arg2.cnt > 0 && arg3.cnt == 0){
 168:cli.c         ****                 uint16 tmp1, tmp2;
 169:cli.c         ****                 
 170:cli.c         ****                 tmp1 = ParseArgument(&arg1);
 171:cli.c         ****                 tmp2 = ParseArgument(&arg2);
 172:cli.c         ****                 
 173:cli.c         ****                 if(tmp1 >360) {tmp1 = 360;}
 174:cli.c         ****                 if(tmp2 >360) {tmp2 = 360;}
 175:cli.c         ****                 
 176:cli.c         ****                 setRotation(AS5600_FROM_ANGULAR(tmp1), AS5600_FROM_ANGULAR(tmp2));
 177:cli.c         ****                 
 178:cli.c         ****                 return false;
 179:cli.c         ****             }
 180:cli.c         ****             return true;
 181:cli.c         ****             
 182:cli.c         ****         } else if(!strcmp(cmd.data, "wsos")){
 183:cli.c         ****             
 184:cli.c         ****             if(arg1.cnt > 0 && arg2.cnt == 0 && arg3.cnt == 0){
 185:cli.c         ****                 setBit((ParseArgument(&arg1) > 0), 1, 0x00);
 186:cli.c         ****                 return false;
 187:cli.c         ****             }
 188:cli.c         ****             return true;
 189:cli.c         ****             
 190:cli.c         ****         } else if(!strcmp(cmd.data, "wpoi")){
 191:cli.c         ****             
 192:cli.c         ****             if(arg1.cnt > 0 && arg2.cnt == 0 && arg3.cnt == 0){
 193:cli.c         ****                 uint8 id = ParseArgument(&arg1);
 194:cli.c         ****                 if(1 <= id && 16 >= id){
 195:cli.c         ****                     saveToSaveSlot(id);
 196:cli.c         ****                     return false;
 197:cli.c         ****                 }
 198:cli.c         ****                 UART_PutString("Invalid ID.");
 199:cli.c         ****             }
 200:cli.c         ****             return true;
 201:cli.c         ****             
ARM GAS  C:\Users\Dell\AppData\Local\Temp\cc7rf4Ck.s 			page 5


 202:cli.c         ****         } else if(!strcmp(cmd.data, "mhom")){
 203:cli.c         ****             
 204:cli.c         ****             if(arg1.cnt == 0 && arg2.cnt == 0 && arg3.cnt == 0){
 205:cli.c         ****                 
 206:cli.c         ****                 uint16 x = loadWord(0x01);
 207:cli.c         ****                 uint16 y = loadWord(0x03);
 208:cli.c         ****                 
 209:cli.c         ****                 setRotation(x, y);
 210:cli.c         ****                 
 211:cli.c         ****                 return false;
 212:cli.c         ****             }
 213:cli.c         ****             return true;
 214:cli.c         ****             
 215:cli.c         ****         } else if(!strcmp(cmd.data, "mact")){
 216:cli.c         ****             
 217:cli.c         ****             //FELESLEGES PARANCS
 218:cli.c         ****             return true;
 219:cli.c         ****             
 220:cli.c         ****         } else if(!strcmp(cmd.data, "mpoi")){
 221:cli.c         ****             
 222:cli.c         ****             if(arg1.cnt > 0 && arg2.cnt == 0 && arg3.cnt == 0){
 223:cli.c         ****                 uint8 id = ParseArgument(&arg1);
 224:cli.c         ****                 if(1 <= id && 16 >= id){
 225:cli.c         ****                     moveToSaveSlot(id);
 226:cli.c         ****                     return false;
 227:cli.c         ****                 }
 228:cli.c         ****                 UART_PutString("Invalid ID.");
 229:cli.c         ****             }
 230:cli.c         ****             return true;
 231:cli.c         ****             
 232:cli.c         ****         } else if(!strcmp(cmd.data, "rpoi")){
 233:cli.c         ****             
 234:cli.c         ****             if(arg1.cnt == 0 && arg2.cnt == 0 && arg3.cnt == 0){
 235:cli.c         ****                 listSaveSlots();
 236:cli.c         ****                 return false;
 237:cli.c         ****             } else if(arg1.cnt > 0 && arg2.cnt == 0 && arg3.cnt == 0){
 238:cli.c         ****                 uint8 id = ParseArgument(&arg1);
 239:cli.c         ****                 if(1 <= id && 16 >= id){
 240:cli.c         ****                     saveSlotDetails(id);
 241:cli.c         ****                     return false;
 242:cli.c         ****                 }
 243:cli.c         ****                 UART_PutString("Invalid ID.");
 244:cli.c         ****             }
 245:cli.c         ****             return true;
 246:cli.c         ****             
 247:cli.c         ****         }
 248:cli.c         ****     }
 249:cli.c         ****     return true;
 250:cli.c         **** }
 251:cli.c         **** 
 252:cli.c         **** void ResetInput(){
  28              		.loc 1 252 0
  29              		.cfi_startproc
  30              		@ args = 0, pretend = 0, frame = 0
  31              		@ frame_needed = 0, uses_anonymous_args = 0
  32              		@ link register save eliminated.
 253:cli.c         ****     readState = CMD;
ARM GAS  C:\Users\Dell\AppData\Local\Temp\cc7rf4Ck.s 			page 6


  33              		.loc 1 253 0
  34 0000 0023     		movs	r3, #0
  35 0002 0C4A     		ldr	r2, .L4
  36 0004 1370     		strb	r3, [r2]
 254:cli.c         ****     cmd.cnt = 0;
  37              		.loc 1 254 0
  38 0006 0C4A     		ldr	r2, .L4+4
  39 0008 9360     		str	r3, [r2, #8]
 255:cli.c         ****     arg1.cnt = 0;
  40              		.loc 1 255 0
  41 000a 0C4A     		ldr	r2, .L4+8
  42 000c 9360     		str	r3, [r2, #8]
 256:cli.c         ****     arg2.cnt = 0;
  43              		.loc 1 256 0
  44 000e 0C4A     		ldr	r2, .L4+12
  45 0010 9360     		str	r3, [r2, #8]
 257:cli.c         ****     arg3.cnt = 0;
  46              		.loc 1 257 0
  47 0012 0C4A     		ldr	r2, .L4+16
  48 0014 9360     		str	r3, [r2, #8]
  49              	.LVL0:
  50              	.LBB2:
 258:cli.c         ****     for(int i = 0; i < 5; i++){
  51              		.loc 1 258 0
  52 0016 09E0     		b	.L2
  53              	.LVL1:
  54              	.L3:
 259:cli.c         ****         cmd.data[i] = 0;
  55              		.loc 1 259 0 discriminator 3
  56 0018 0022     		movs	r2, #0
  57 001a 0749     		ldr	r1, .L4+4
  58 001c CA54     		strb	r2, [r1, r3]
 260:cli.c         ****         arg1.data[i] = 0;
  59              		.loc 1 260 0 discriminator 3
  60 001e 0749     		ldr	r1, .L4+8
  61 0020 CA54     		strb	r2, [r1, r3]
 261:cli.c         ****         arg2.data[i] = 0;
  62              		.loc 1 261 0 discriminator 3
  63 0022 0749     		ldr	r1, .L4+12
  64 0024 CA54     		strb	r2, [r1, r3]
 262:cli.c         ****         arg3.data[i] = 0;
  65              		.loc 1 262 0 discriminator 3
  66 0026 0749     		ldr	r1, .L4+16
  67 0028 CA54     		strb	r2, [r1, r3]
 258:cli.c         ****         cmd.data[i] = 0;
  68              		.loc 1 258 0 discriminator 3
  69 002a 0133     		adds	r3, r3, #1
  70              	.LVL2:
  71              	.L2:
 258:cli.c         ****         cmd.data[i] = 0;
  72              		.loc 1 258 0 is_stmt 0 discriminator 1
  73 002c 042B     		cmp	r3, #4
  74 002e F3DD     		ble	.L3
  75              	.LBE2:
 263:cli.c         ****     }
 264:cli.c         ****     
 265:cli.c         **** }
ARM GAS  C:\Users\Dell\AppData\Local\Temp\cc7rf4Ck.s 			page 7


  76              		.loc 1 265 0 is_stmt 1
  77 0030 7047     		bx	lr
  78              	.L5:
  79 0032 00BF     		.align	2
  80              	.L4:
  81 0034 00000000 		.word	.LANCHOR0
  82 0038 00000000 		.word	cmd
  83 003c 00000000 		.word	arg1
  84 0040 00000000 		.word	arg2
  85 0044 00000000 		.word	arg3
  86              		.cfi_endproc
  87              	.LFE67:
  88              		.size	ResetInput, .-ResetInput
  89              		.section	.text.CLI_Init,"ax",%progbits
  90              		.align	2
  91              		.global	CLI_Init
  92              		.thumb
  93              		.thumb_func
  94              		.type	CLI_Init, %function
  95              	CLI_Init:
  96              	.LFB64:
  19:cli.c         ****     ResetInput(&readState, &cmd, &arg1, &arg2, &arg3);
  97              		.loc 1 19 0
  98              		.cfi_startproc
  99              		@ args = 0, pretend = 0, frame = 0
 100              		@ frame_needed = 0, uses_anonymous_args = 0
 101 0000 00B5     		push	{lr}
 102              		.cfi_def_cfa_offset 4
 103              		.cfi_offset 14, -4
 104 0002 83B0     		sub	sp, sp, #12
 105              		.cfi_def_cfa_offset 16
  20:cli.c         **** }
 106              		.loc 1 20 0
 107 0004 054B     		ldr	r3, .L8
 108 0006 0093     		str	r3, [sp]
 109 0008 054B     		ldr	r3, .L8+4
 110 000a 064A     		ldr	r2, .L8+8
 111 000c 0649     		ldr	r1, .L8+12
 112 000e 0748     		ldr	r0, .L8+16
 113 0010 FFF7FEFF 		bl	ResetInput
 114              	.LVL3:
  21:cli.c         **** 
 115              		.loc 1 21 0
 116 0014 03B0     		add	sp, sp, #12
 117              		.cfi_def_cfa_offset 4
 118              		@ sp needed
 119 0016 5DF804FB 		ldr	pc, [sp], #4
 120              	.L9:
 121 001a 00BF     		.align	2
 122              	.L8:
 123 001c 00000000 		.word	arg3
 124 0020 00000000 		.word	arg2
 125 0024 00000000 		.word	arg1
 126 0028 00000000 		.word	cmd
 127 002c 00000000 		.word	.LANCHOR0
 128              		.cfi_endproc
 129              	.LFE64:
ARM GAS  C:\Users\Dell\AppData\Local\Temp\cc7rf4Ck.s 			page 8


 130              		.size	CLI_Init, .-CLI_Init
 131              		.section	.text.AddArgumentDigit,"ax",%progbits
 132              		.align	2
 133              		.global	AddArgumentDigit
 134              		.thumb
 135              		.thumb_func
 136              		.type	AddArgumentDigit, %function
 137              	AddArgumentDigit:
 138              	.LFB68:
 266:cli.c         **** 
 267:cli.c         **** bool AddArgumentDigit(char c, struct INPUT_BUFFER* arg){
 139              		.loc 1 267 0
 140              		.cfi_startproc
 141              		@ args = 0, pretend = 0, frame = 0
 142              		@ frame_needed = 0, uses_anonymous_args = 0
 143              		@ link register save eliminated.
 144              	.LVL4:
 268:cli.c         ****     if(isdigit(c)){
 145              		.loc 1 268 0
 146 0000 094B     		ldr	r3, .L14
 147 0002 1B68     		ldr	r3, [r3]
 148 0004 0344     		add	r3, r3, r0
 149 0006 5B78     		ldrb	r3, [r3, #1]	@ zero_extendqisi2
 150 0008 13F0040F 		tst	r3, #4
 151 000c 07D0     		beq	.L12
 269:cli.c         ****         if(arg->cnt <= 3){
 152              		.loc 1 269 0
 153 000e 8B68     		ldr	r3, [r1, #8]
 154 0010 032B     		cmp	r3, #3
 155 0012 06DC     		bgt	.L13
 270:cli.c         ****             arg->data[arg->cnt++] = c;
 156              		.loc 1 270 0
 157 0014 5A1C     		adds	r2, r3, #1
 158 0016 8A60     		str	r2, [r1, #8]
 159 0018 C854     		strb	r0, [r1, r3]
 271:cli.c         ****         }
 272:cli.c         ****         return false;
 160              		.loc 1 272 0
 161 001a 0020     		movs	r0, #0
 162              	.LVL5:
 163 001c 7047     		bx	lr
 164              	.LVL6:
 165              	.L12:
 273:cli.c         ****     }
 274:cli.c         ****     return true;
 166              		.loc 1 274 0
 167 001e 0120     		movs	r0, #1
 168              	.LVL7:
 169 0020 7047     		bx	lr
 170              	.LVL8:
 171              	.L13:
 272:cli.c         ****     }
 172              		.loc 1 272 0
 173 0022 0020     		movs	r0, #0
 174              	.LVL9:
 275:cli.c         **** }
 175              		.loc 1 275 0
ARM GAS  C:\Users\Dell\AppData\Local\Temp\cc7rf4Ck.s 			page 9


 176 0024 7047     		bx	lr
 177              	.L15:
 178 0026 00BF     		.align	2
 179              	.L14:
 180 0028 00000000 		.word	__ctype_ptr__
 181              		.cfi_endproc
 182              	.LFE68:
 183              		.size	AddArgumentDigit, .-AddArgumentDigit
 184              		.section	.text.AddCommandChar,"ax",%progbits
 185              		.align	2
 186              		.global	AddCommandChar
 187              		.thumb
 188              		.thumb_func
 189              		.type	AddCommandChar, %function
 190              	AddCommandChar:
 191              	.LFB69:
 276:cli.c         **** 
 277:cli.c         **** bool AddCommandChar(char c, struct INPUT_BUFFER* cmd){
 192              		.loc 1 277 0
 193              		.cfi_startproc
 194              		@ args = 0, pretend = 0, frame = 0
 195              		@ frame_needed = 0, uses_anonymous_args = 0
 196              		@ link register save eliminated.
 197              	.LVL10:
 278:cli.c         ****     if(cmd->cnt <= 3){
 198              		.loc 1 278 0
 199 0000 8B68     		ldr	r3, [r1, #8]
 200 0002 032B     		cmp	r3, #3
 201 0004 04DC     		bgt	.L18
 279:cli.c         ****             cmd->data[cmd->cnt++] = c;
 202              		.loc 1 279 0
 203 0006 5A1C     		adds	r2, r3, #1
 204 0008 8A60     		str	r2, [r1, #8]
 205 000a C854     		strb	r0, [r1, r3]
 280:cli.c         ****             return false;
 206              		.loc 1 280 0
 207 000c 0020     		movs	r0, #0
 208              	.LVL11:
 209 000e 7047     		bx	lr
 210              	.LVL12:
 211              	.L18:
 281:cli.c         ****     }
 282:cli.c         ****     return true;
 212              		.loc 1 282 0
 213 0010 0120     		movs	r0, #1
 214              	.LVL13:
 283:cli.c         **** }
 215              		.loc 1 283 0
 216 0012 7047     		bx	lr
 217              		.cfi_endproc
 218              	.LFE69:
 219              		.size	AddCommandChar, .-AddCommandChar
 220              		.section	.text.ParseArgument,"ax",%progbits
 221              		.align	2
 222              		.global	ParseArgument
 223              		.thumb
 224              		.thumb_func
ARM GAS  C:\Users\Dell\AppData\Local\Temp\cc7rf4Ck.s 			page 10


 225              		.type	ParseArgument, %function
 226              	ParseArgument:
 227              	.LFB70:
 284:cli.c         **** 
 285:cli.c         **** int ParseArgument(struct INPUT_BUFFER* arg){
 228              		.loc 1 285 0
 229              		.cfi_startproc
 230              		@ args = 0, pretend = 0, frame = 0
 231              		@ frame_needed = 0, uses_anonymous_args = 0
 232              		@ link register save eliminated.
 233              	.LVL14:
 234 0000 10B4     		push	{r4}
 235              		.cfi_def_cfa_offset 4
 236              		.cfi_offset 4, -4
 237 0002 0446     		mov	r4, r0
 238              	.LVL15:
 239              	.LBB3:
 286:cli.c         ****     int res = 0;
 287:cli.c         ****     for(int i = 0; i < arg->cnt; i++){
 240              		.loc 1 287 0
 241 0004 0022     		movs	r2, #0
 242              	.LBE3:
 286:cli.c         ****     int res = 0;
 243              		.loc 1 286 0
 244 0006 1046     		mov	r0, r2
 245              	.LVL16:
 246              	.LBB4:
 247              		.loc 1 287 0
 248 0008 06E0     		b	.L20
 249              	.LVL17:
 250              	.L21:
 288:cli.c         ****         res *= 10;
 251              		.loc 1 288 0 discriminator 3
 252 000a 00EB8003 		add	r3, r0, r0, lsl #2
 253 000e 5900     		lsls	r1, r3, #1
 254              	.LVL18:
 289:cli.c         ****         res += arg->data[i] - '0';
 255              		.loc 1 289 0 discriminator 3
 256 0010 A35C     		ldrb	r3, [r4, r2]	@ zero_extendqisi2
 257 0012 303B     		subs	r3, r3, #48
 258 0014 C818     		adds	r0, r1, r3
 259              	.LVL19:
 287:cli.c         ****         res *= 10;
 260              		.loc 1 287 0 discriminator 3
 261 0016 0132     		adds	r2, r2, #1
 262              	.LVL20:
 263              	.L20:
 287:cli.c         ****         res *= 10;
 264              		.loc 1 287 0 is_stmt 0 discriminator 1
 265 0018 A368     		ldr	r3, [r4, #8]
 266 001a 9A42     		cmp	r2, r3
 267 001c F5DB     		blt	.L21
 268              	.LBE4:
 290:cli.c         ****     }
 291:cli.c         ****     return res;
 292:cli.c         **** }
 269              		.loc 1 292 0 is_stmt 1
ARM GAS  C:\Users\Dell\AppData\Local\Temp\cc7rf4Ck.s 			page 11


 270 001e 10BC     		pop	{r4}
 271              		.cfi_restore 4
 272              		.cfi_def_cfa_offset 0
 273              	.LVL21:
 274 0020 7047     		bx	lr
 275              		.cfi_endproc
 276              	.LFE70:
 277              		.size	ParseArgument, .-ParseArgument
 278              		.global	__aeabi_i2f
 279              		.global	__aeabi_fdiv
 280              		.global	__aeabi_f2iz
 281              		.global	__aeabi_fmul
 282              		.global	__aeabi_f2uiz
 283 0022 00BF     		.section	.text.ProcessCommand,"ax",%progbits
 284              		.align	2
 285              		.global	ProcessCommand
 286              		.thumb
 287              		.thumb_func
 288              		.type	ProcessCommand, %function
 289              	ProcessCommand:
 290              	.LFB66:
  78:cli.c         ****     if(cmd.cnt == 4) {
 291              		.loc 1 78 0
 292              		.cfi_startproc
 293              		@ args = 0, pretend = 0, frame = 48
 294              		@ frame_needed = 0, uses_anonymous_args = 0
  79:cli.c         ****         ROTATOR_STATE rotator_state = getRotation();
 295              		.loc 1 79 0
 296 0000 A64B     		ldr	r3, .L94
 297 0002 9B68     		ldr	r3, [r3, #8]
 298 0004 042B     		cmp	r3, #4
 299 0006 40F0D182 		bne	.L47
  78:cli.c         ****     if(cmd.cnt == 4) {
 300              		.loc 1 78 0
 301 000a 30B5     		push	{r4, r5, lr}
 302              		.cfi_def_cfa_offset 12
 303              		.cfi_offset 4, -12
 304              		.cfi_offset 5, -8
 305              		.cfi_offset 14, -4
 306 000c 8DB0     		sub	sp, sp, #52
 307              		.cfi_def_cfa_offset 64
 308              	.LBB5:
  80:cli.c         ****         if(!strcmp(cmd.data, "rhom")){
 309              		.loc 1 80 0
 310 000e 6846     		mov	r0, sp
 311 0010 FFF7FEFF 		bl	getRotation
 312              	.LVL22:
  81:cli.c         ****             
 313              		.loc 1 81 0
 314 0014 A249     		ldr	r1, .L94+4
 315 0016 A148     		ldr	r0, .L94
 316 0018 FFF7FEFF 		bl	strcmp
 317              	.LVL23:
 318 001c 0028     		cmp	r0, #0
 319 001e 34D1     		bne	.L25
  83:cli.c         ****                 uint16 x = loadWord(0x01);
 320              		.loc 1 83 0
ARM GAS  C:\Users\Dell\AppData\Local\Temp\cc7rf4Ck.s 			page 12


 321 0020 A04B     		ldr	r3, .L94+8
 322 0022 9B68     		ldr	r3, [r3, #8]
 323 0024 002B     		cmp	r3, #0
 324 0026 40F05782 		bne	.L48
  83:cli.c         ****                 uint16 x = loadWord(0x01);
 325              		.loc 1 83 0 is_stmt 0 discriminator 1
 326 002a 9F4B     		ldr	r3, .L94+12
 327 002c 9B68     		ldr	r3, [r3, #8]
 328 002e 002B     		cmp	r3, #0
 329 0030 40F05482 		bne	.L49
  83:cli.c         ****                 uint16 x = loadWord(0x01);
 330              		.loc 1 83 0 discriminator 2
 331 0034 9D4B     		ldr	r3, .L94+16
 332 0036 9B68     		ldr	r3, [r3, #8]
 333 0038 002B     		cmp	r3, #0
 334 003a 40F05182 		bne	.L50
 335              	.LBB6:
  84:cli.c         ****                 uint16 y = loadWord(0x03);
 336              		.loc 1 84 0 is_stmt 1
 337 003e 0120     		movs	r0, #1
 338 0040 FFF7FEFF 		bl	loadWord
 339              	.LVL24:
 340 0044 0546     		mov	r5, r0
 341              	.LVL25:
  85:cli.c         ****                 
 342              		.loc 1 85 0
 343 0046 0320     		movs	r0, #3
 344 0048 FFF7FEFF 		bl	loadWord
 345              	.LVL26:
 346 004c 0446     		mov	r4, r0
 347              	.LVL27:
  88:cli.c         ****                 UART_PutString(str);
 348              		.loc 1 88 0
 349 004e 2846     		mov	r0, r5
 350 0050 FFF7FEFF 		bl	__aeabi_i2f
 351              	.LVL28:
 352 0054 9649     		ldr	r1, .L94+20
 353 0056 FFF7FEFF 		bl	__aeabi_fdiv
 354              	.LVL29:
 355 005a 0546     		mov	r5, r0
 356              	.LVL30:
 357 005c 2046     		mov	r0, r4
 358 005e FFF7FEFF 		bl	__aeabi_i2f
 359              	.LVL31:
 360 0062 9349     		ldr	r1, .L94+20
 361 0064 FFF7FEFF 		bl	__aeabi_fdiv
 362              	.LVL32:
 363 0068 FFF7FEFF 		bl	__aeabi_f2iz
 364              	.LVL33:
 365 006c 0446     		mov	r4, r0
 366              	.LVL34:
 367 006e 2846     		mov	r0, r5
 368 0070 FFF7FEFF 		bl	__aeabi_f2iz
 369              	.LVL35:
 370 0074 2346     		mov	r3, r4
 371 0076 0246     		mov	r2, r0
 372 0078 8E49     		ldr	r1, .L94+24
ARM GAS  C:\Users\Dell\AppData\Local\Temp\cc7rf4Ck.s 			page 13


 373 007a 04A8     		add	r0, sp, #16
 374 007c FFF7FEFF 		bl	sprintf
 375              	.LVL36:
  89:cli.c         ****                 return false;
 376              		.loc 1 89 0
 377 0080 04A8     		add	r0, sp, #16
 378 0082 FFF7FEFF 		bl	UART_PutString
 379              	.LVL37:
  90:cli.c         ****             }
 380              		.loc 1 90 0
 381 0086 0020     		movs	r0, #0
 382 0088 92E2     		b	.L24
 383              	.L25:
 384              	.LBE6:
  94:cli.c         ****             
 385              		.loc 1 94 0
 386 008a 8B49     		ldr	r1, .L94+28
 387 008c 8348     		ldr	r0, .L94
 388 008e FFF7FEFF 		bl	strcmp
 389              	.LVL38:
 390 0092 E0B9     		cbnz	r0, .L27
  96:cli.c         ****                 bool tmp;
 391              		.loc 1 96 0
 392 0094 834B     		ldr	r3, .L94+8
 393 0096 9B68     		ldr	r3, [r3, #8]
 394 0098 002B     		cmp	r3, #0
 395 009a 40F02382 		bne	.L51
  96:cli.c         ****                 bool tmp;
 396              		.loc 1 96 0 is_stmt 0 discriminator 1
 397 009e 824B     		ldr	r3, .L94+12
 398 00a0 9B68     		ldr	r3, [r3, #8]
 399 00a2 002B     		cmp	r3, #0
 400 00a4 40F02082 		bne	.L52
  96:cli.c         ****                 bool tmp;
 401              		.loc 1 96 0 discriminator 2
 402 00a8 804B     		ldr	r3, .L94+16
 403 00aa 9B68     		ldr	r3, [r3, #8]
 404 00ac 002B     		cmp	r3, #0
 405 00ae 40F01D82 		bne	.L53
 406              	.LBB7:
  98:cli.c         ****                 
 407              		.loc 1 98 0 is_stmt 1
 408 00b2 0021     		movs	r1, #0
 409 00b4 0846     		mov	r0, r1
 410 00b6 FFF7FEFF 		bl	testBit
 411              	.LVL39:
 101:cli.c         ****                 UART_PutString(str);
 412              		.loc 1 101 0
 413 00ba 0246     		mov	r2, r0
 414 00bc 7F49     		ldr	r1, .L94+32
 415 00be 04A8     		add	r0, sp, #16
 416              	.LVL40:
 417 00c0 FFF7FEFF 		bl	sprintf
 418              	.LVL41:
 102:cli.c         ****                 return false;
 419              		.loc 1 102 0
 420 00c4 04A8     		add	r0, sp, #16
ARM GAS  C:\Users\Dell\AppData\Local\Temp\cc7rf4Ck.s 			page 14


 421 00c6 FFF7FEFF 		bl	UART_PutString
 422              	.LVL42:
 103:cli.c         ****             }
 423              		.loc 1 103 0
 424 00ca 0020     		movs	r0, #0
 425 00cc 70E2     		b	.L24
 426              	.L27:
 427              	.LBE7:
 107:cli.c         ****             
 428              		.loc 1 107 0
 429 00ce 7C49     		ldr	r1, .L94+36
 430 00d0 7248     		ldr	r0, .L94
 431 00d2 FFF7FEFF 		bl	strcmp
 432              	.LVL43:
 433 00d6 60BB     		cbnz	r0, .L28
 109:cli.c         ****                 char str[32];
 434              		.loc 1 109 0
 435 00d8 724B     		ldr	r3, .L94+8
 436 00da 9B68     		ldr	r3, [r3, #8]
 437 00dc 002B     		cmp	r3, #0
 438 00de 40F00782 		bne	.L54
 109:cli.c         ****                 char str[32];
 439              		.loc 1 109 0 is_stmt 0 discriminator 1
 440 00e2 714B     		ldr	r3, .L94+12
 441 00e4 9B68     		ldr	r3, [r3, #8]
 442 00e6 002B     		cmp	r3, #0
 443 00e8 40F00482 		bne	.L55
 109:cli.c         ****                 char str[32];
 444              		.loc 1 109 0 discriminator 2
 445 00ec 6F4B     		ldr	r3, .L94+16
 446 00ee 9B68     		ldr	r3, [r3, #8]
 447 00f0 002B     		cmp	r3, #0
 448 00f2 40F00182 		bne	.L56
 449              	.LBB8:
 111:cli.c         ****                 UART_PutString(str);
 450              		.loc 1 111 0 is_stmt 1
 451 00f6 0298     		ldr	r0, [sp, #8]
 452 00f8 FFF7FEFF 		bl	__aeabi_i2f
 453              	.LVL44:
 454 00fc 6C49     		ldr	r1, .L94+20
 455 00fe FFF7FEFF 		bl	__aeabi_fdiv
 456              	.LVL45:
 457 0102 0546     		mov	r5, r0
 458 0104 0398     		ldr	r0, [sp, #12]
 459 0106 FFF7FEFF 		bl	__aeabi_i2f
 460              	.LVL46:
 461 010a 6949     		ldr	r1, .L94+20
 462 010c FFF7FEFF 		bl	__aeabi_fdiv
 463              	.LVL47:
 464 0110 FFF7FEFF 		bl	__aeabi_f2iz
 465              	.LVL48:
 466 0114 0446     		mov	r4, r0
 467 0116 2846     		mov	r0, r5
 468 0118 FFF7FEFF 		bl	__aeabi_f2iz
 469              	.LVL49:
 470 011c 2346     		mov	r3, r4
 471 011e 0246     		mov	r2, r0
ARM GAS  C:\Users\Dell\AppData\Local\Temp\cc7rf4Ck.s 			page 15


 472 0120 6449     		ldr	r1, .L94+24
 473 0122 04A8     		add	r0, sp, #16
 474 0124 FFF7FEFF 		bl	sprintf
 475              	.LVL50:
 112:cli.c         ****                 return false;
 476              		.loc 1 112 0
 477 0128 04A8     		add	r0, sp, #16
 478 012a FFF7FEFF 		bl	UART_PutString
 479              	.LVL51:
 113:cli.c         ****             }
 480              		.loc 1 113 0
 481 012e 0020     		movs	r0, #0
 482 0130 3EE2     		b	.L24
 483              	.L28:
 484              	.LBE8:
 117:cli.c         ****             
 485              		.loc 1 117 0
 486 0132 6449     		ldr	r1, .L94+40
 487 0134 5948     		ldr	r0, .L94
 488 0136 FFF7FEFF 		bl	strcmp
 489              	.LVL52:
 490 013a 60BB     		cbnz	r0, .L29
 119:cli.c         ****                 char str[32];
 491              		.loc 1 119 0
 492 013c 594B     		ldr	r3, .L94+8
 493 013e 9B68     		ldr	r3, [r3, #8]
 494 0140 002B     		cmp	r3, #0
 495 0142 40F0DB81 		bne	.L57
 119:cli.c         ****                 char str[32];
 496              		.loc 1 119 0 is_stmt 0 discriminator 1
 497 0146 584B     		ldr	r3, .L94+12
 498 0148 9B68     		ldr	r3, [r3, #8]
 499 014a 002B     		cmp	r3, #0
 500 014c 40F0D881 		bne	.L58
 119:cli.c         ****                 char str[32];
 501              		.loc 1 119 0 discriminator 2
 502 0150 564B     		ldr	r3, .L94+16
 503 0152 9B68     		ldr	r3, [r3, #8]
 504 0154 002B     		cmp	r3, #0
 505 0156 40F0D581 		bne	.L59
 506              	.LBB9:
 121:cli.c         ****                 UART_PutString(str);
 507              		.loc 1 121 0 is_stmt 1
 508 015a 0098     		ldr	r0, [sp]
 509 015c FFF7FEFF 		bl	__aeabi_i2f
 510              	.LVL53:
 511 0160 5349     		ldr	r1, .L94+20
 512 0162 FFF7FEFF 		bl	__aeabi_fdiv
 513              	.LVL54:
 514 0166 0546     		mov	r5, r0
 515 0168 0198     		ldr	r0, [sp, #4]
 516 016a FFF7FEFF 		bl	__aeabi_i2f
 517              	.LVL55:
 518 016e 5049     		ldr	r1, .L94+20
 519 0170 FFF7FEFF 		bl	__aeabi_fdiv
 520              	.LVL56:
 521 0174 FFF7FEFF 		bl	__aeabi_f2iz
ARM GAS  C:\Users\Dell\AppData\Local\Temp\cc7rf4Ck.s 			page 16


 522              	.LVL57:
 523 0178 0446     		mov	r4, r0
 524 017a 2846     		mov	r0, r5
 525 017c FFF7FEFF 		bl	__aeabi_f2iz
 526              	.LVL58:
 527 0180 2346     		mov	r3, r4
 528 0182 0246     		mov	r2, r0
 529 0184 4B49     		ldr	r1, .L94+24
 530 0186 04A8     		add	r0, sp, #16
 531 0188 FFF7FEFF 		bl	sprintf
 532              	.LVL59:
 122:cli.c         ****                 return false;
 533              		.loc 1 122 0
 534 018c 04A8     		add	r0, sp, #16
 535 018e FFF7FEFF 		bl	UART_PutString
 536              	.LVL60:
 123:cli.c         ****             }
 537              		.loc 1 123 0
 538 0192 0020     		movs	r0, #0
 539 0194 0CE2     		b	.L24
 540              	.L29:
 541              	.LBE9:
 127:cli.c         ****             
 542              		.loc 1 127 0
 543 0196 4C49     		ldr	r1, .L94+44
 544 0198 4048     		ldr	r0, .L94
 545 019a FFF7FEFF 		bl	strcmp
 546              	.LVL61:
 547 019e E0B9     		cbnz	r0, .L30
 129:cli.c         ****                 bool tmp;
 548              		.loc 1 129 0
 549 01a0 404B     		ldr	r3, .L94+8
 550 01a2 9B68     		ldr	r3, [r3, #8]
 551 01a4 002B     		cmp	r3, #0
 552 01a6 40F0AF81 		bne	.L60
 129:cli.c         ****                 bool tmp;
 553              		.loc 1 129 0 is_stmt 0 discriminator 1
 554 01aa 3F4B     		ldr	r3, .L94+12
 555 01ac 9B68     		ldr	r3, [r3, #8]
 556 01ae 002B     		cmp	r3, #0
 557 01b0 40F0AC81 		bne	.L61
 129:cli.c         ****                 bool tmp;
 558              		.loc 1 129 0 discriminator 2
 559 01b4 3D4B     		ldr	r3, .L94+16
 560 01b6 9B68     		ldr	r3, [r3, #8]
 561 01b8 002B     		cmp	r3, #0
 562 01ba 40F0A981 		bne	.L62
 563              	.LBB10:
 131:cli.c         ****                 
 564              		.loc 1 131 0 is_stmt 1
 565 01be 0021     		movs	r1, #0
 566 01c0 0120     		movs	r0, #1
 567 01c2 FFF7FEFF 		bl	testBit
 568              	.LVL62:
 134:cli.c         ****                 UART_PutString(str);
 569              		.loc 1 134 0
 570 01c6 0246     		mov	r2, r0
ARM GAS  C:\Users\Dell\AppData\Local\Temp\cc7rf4Ck.s 			page 17


 571 01c8 4049     		ldr	r1, .L94+48
 572 01ca 04A8     		add	r0, sp, #16
 573              	.LVL63:
 574 01cc FFF7FEFF 		bl	sprintf
 575              	.LVL64:
 135:cli.c         ****                 return false;
 576              		.loc 1 135 0
 577 01d0 04A8     		add	r0, sp, #16
 578 01d2 FFF7FEFF 		bl	UART_PutString
 579              	.LVL65:
 136:cli.c         ****             }
 580              		.loc 1 136 0
 581 01d6 0020     		movs	r0, #0
 582 01d8 EAE1     		b	.L24
 583              	.L30:
 584              	.LBE10:
 140:cli.c         ****             
 585              		.loc 1 140 0
 586 01da 3D49     		ldr	r1, .L94+52
 587 01dc 2F48     		ldr	r0, .L94
 588 01de FFF7FEFF 		bl	strcmp
 589              	.LVL66:
 590 01e2 0028     		cmp	r0, #0
 591 01e4 38D1     		bne	.L31
 142:cli.c         ****                 uint16 x = ParseArgument(&arg1);
 592              		.loc 1 142 0
 593 01e6 2F4B     		ldr	r3, .L94+8
 594 01e8 9B68     		ldr	r3, [r3, #8]
 595 01ea 002B     		cmp	r3, #0
 596 01ec 40F39281 		ble	.L63
 142:cli.c         ****                 uint16 x = ParseArgument(&arg1);
 597              		.loc 1 142 0 is_stmt 0 discriminator 1
 598 01f0 2D4B     		ldr	r3, .L94+12
 599 01f2 9B68     		ldr	r3, [r3, #8]
 600 01f4 002B     		cmp	r3, #0
 601 01f6 40F38F81 		ble	.L64
 142:cli.c         ****                 uint16 x = ParseArgument(&arg1);
 602              		.loc 1 142 0 discriminator 2
 603 01fa 2C4B     		ldr	r3, .L94+16
 604 01fc 9B68     		ldr	r3, [r3, #8]
 605 01fe 002B     		cmp	r3, #0
 606 0200 40F08C81 		bne	.L65
 607              	.LBB11:
 143:cli.c         ****                 if(x > 360) {x = 360;}
 608              		.loc 1 143 0 is_stmt 1
 609 0204 2748     		ldr	r0, .L94+8
 610 0206 FFF7FEFF 		bl	ParseArgument
 611              	.LVL67:
 612 020a 80B2     		uxth	r0, r0
 613              	.LVL68:
 144:cli.c         ****                 x = AS5600_FROM_ANGULAR(x);
 614              		.loc 1 144 0
 615 020c B0F5B47F 		cmp	r0, #360
 616 0210 01D9     		bls	.L32
 617 0212 4FF4B470 		mov	r0, #360
 618              	.LVL69:
 619              	.L32:
ARM GAS  C:\Users\Dell\AppData\Local\Temp\cc7rf4Ck.s 			page 18


 145:cli.c         ****                 saveWord(x, 0x01);
 620              		.loc 1 145 0
 621 0216 FFF7FEFF 		bl	__aeabi_i2f
 622              	.LVL70:
 623 021a 2549     		ldr	r1, .L94+20
 624 021c FFF7FEFF 		bl	__aeabi_fmul
 625              	.LVL71:
 626 0220 FFF7FEFF 		bl	__aeabi_f2uiz
 627              	.LVL72:
 146:cli.c         ****                 
 628              		.loc 1 146 0
 629 0224 0121     		movs	r1, #1
 630 0226 80B2     		uxth	r0, r0
 631 0228 FFF7FEFF 		bl	saveWord
 632              	.LVL73:
 148:cli.c         ****                 if(y > 360) {y = 360;}
 633              		.loc 1 148 0
 634 022c 1E48     		ldr	r0, .L94+12
 635 022e FFF7FEFF 		bl	ParseArgument
 636              	.LVL74:
 637 0232 80B2     		uxth	r0, r0
 638              	.LVL75:
 149:cli.c         ****                 y = AS5600_FROM_ANGULAR(y);
 639              		.loc 1 149 0
 640 0234 B0F5B47F 		cmp	r0, #360
 641 0238 01D9     		bls	.L33
 642 023a 4FF4B470 		mov	r0, #360
 643              	.LVL76:
 644              	.L33:
 150:cli.c         ****                 saveWord(y, 0x03);
 645              		.loc 1 150 0
 646 023e FFF7FEFF 		bl	__aeabi_i2f
 647              	.LVL77:
 648 0242 1B49     		ldr	r1, .L94+20
 649 0244 FFF7FEFF 		bl	__aeabi_fmul
 650              	.LVL78:
 651 0248 FFF7FEFF 		bl	__aeabi_f2uiz
 652              	.LVL79:
 151:cli.c         ****                 
 653              		.loc 1 151 0
 654 024c 0321     		movs	r1, #3
 655 024e 80B2     		uxth	r0, r0
 656 0250 FFF7FEFF 		bl	saveWord
 657              	.LVL80:
 153:cli.c         ****             }
 658              		.loc 1 153 0
 659 0254 0020     		movs	r0, #0
 660 0256 ABE1     		b	.L24
 661              	.L31:
 662              	.LBE11:
 157:cli.c         ****             
 663              		.loc 1 157 0
 664 0258 1E49     		ldr	r1, .L94+56
 665 025a 1048     		ldr	r0, .L94
 666 025c FFF7FEFF 		bl	strcmp
 667              	.LVL81:
 668 0260 0028     		cmp	r0, #0
ARM GAS  C:\Users\Dell\AppData\Local\Temp\cc7rf4Ck.s 			page 19


 669 0262 39D1     		bne	.L34
 159:cli.c         ****                 setBit((ParseArgument(&arg1) > 0), 0, 0x00);
 670              		.loc 1 159 0
 671 0264 0F4B     		ldr	r3, .L94+8
 672 0266 9B68     		ldr	r3, [r3, #8]
 673 0268 002B     		cmp	r3, #0
 674 026a 40F35981 		ble	.L68
 159:cli.c         ****                 setBit((ParseArgument(&arg1) > 0), 0, 0x00);
 675              		.loc 1 159 0 is_stmt 0 discriminator 1
 676 026e 0E4B     		ldr	r3, .L94+12
 677 0270 9B68     		ldr	r3, [r3, #8]
 678 0272 002B     		cmp	r3, #0
 679 0274 40F05681 		bne	.L69
 159:cli.c         ****                 setBit((ParseArgument(&arg1) > 0), 0, 0x00);
 680              		.loc 1 159 0 discriminator 2
 681 0278 0C4B     		ldr	r3, .L94+16
 682 027a 9B68     		ldr	r3, [r3, #8]
 683 027c 002B     		cmp	r3, #0
 684 027e 40F05381 		bne	.L70
 160:cli.c         ****                 return false;
 685              		.loc 1 160 0 is_stmt 1
 686 0282 0848     		ldr	r0, .L94+8
 687 0284 FFF7FEFF 		bl	ParseArgument
 688              	.LVL82:
 689 0288 0022     		movs	r2, #0
 690 028a 1146     		mov	r1, r2
 691 028c 9042     		cmp	r0, r2
 692 028e D4BF     		ite	le
 693 0290 0020     		movle	r0, #0
 694 0292 0120     		movgt	r0, #1
 695 0294 FFF7FEFF 		bl	setBit
 696              	.LVL83:
 161:cli.c         ****             }
 697              		.loc 1 161 0
 698 0298 0020     		movs	r0, #0
 699 029a 89E1     		b	.L24
 700              	.L95:
 701              		.align	2
 702              	.L94:
 703 029c 00000000 		.word	cmd
 704 02a0 00000000 		.word	.LC0
 705 02a4 00000000 		.word	arg1
 706 02a8 00000000 		.word	arg2
 707 02ac 00000000 		.word	arg3
 708 02b0 610B3641 		.word	1094060897
 709 02b4 08000000 		.word	.LC1
 710 02b8 1C000000 		.word	.LC2
 711 02bc 24000000 		.word	.LC3
 712 02c0 3C000000 		.word	.LC4
 713 02c4 44000000 		.word	.LC5
 714 02c8 4C000000 		.word	.LC6
 715 02cc 54000000 		.word	.LC7
 716 02d0 6C000000 		.word	.LC8
 717 02d4 74000000 		.word	.LC9
 718              	.L34:
 165:cli.c         ****             
 719              		.loc 1 165 0
ARM GAS  C:\Users\Dell\AppData\Local\Temp\cc7rf4Ck.s 			page 20


 720 02d8 A549     		ldr	r1, .L96
 721 02da A648     		ldr	r0, .L96+4
 722 02dc FFF7FEFF 		bl	strcmp
 723              	.LVL84:
 724 02e0 0028     		cmp	r0, #0
 725 02e2 37D1     		bne	.L35
 167:cli.c         ****                 uint16 tmp1, tmp2;
 726              		.loc 1 167 0
 727 02e4 A44B     		ldr	r3, .L96+8
 728 02e6 9B68     		ldr	r3, [r3, #8]
 729 02e8 002B     		cmp	r3, #0
 730 02ea 40F31F81 		ble	.L71
 167:cli.c         ****                 uint16 tmp1, tmp2;
 731              		.loc 1 167 0 is_stmt 0 discriminator 1
 732 02ee A34B     		ldr	r3, .L96+12
 733 02f0 9B68     		ldr	r3, [r3, #8]
 734 02f2 002B     		cmp	r3, #0
 735 02f4 40F31C81 		ble	.L72
 167:cli.c         ****                 uint16 tmp1, tmp2;
 736              		.loc 1 167 0 discriminator 2
 737 02f8 A14B     		ldr	r3, .L96+16
 738 02fa 9B68     		ldr	r3, [r3, #8]
 739 02fc 002B     		cmp	r3, #0
 740 02fe 40F01981 		bne	.L73
 741              	.LBB12:
 170:cli.c         ****                 tmp2 = ParseArgument(&arg2);
 742              		.loc 1 170 0 is_stmt 1
 743 0302 9D48     		ldr	r0, .L96+8
 744 0304 FFF7FEFF 		bl	ParseArgument
 745              	.LVL85:
 746 0308 85B2     		uxth	r5, r0
 747              	.LVL86:
 171:cli.c         ****                 
 748              		.loc 1 171 0
 749 030a 9C48     		ldr	r0, .L96+12
 750 030c FFF7FEFF 		bl	ParseArgument
 751              	.LVL87:
 752 0310 84B2     		uxth	r4, r0
 753              	.LVL88:
 173:cli.c         ****                 if(tmp2 >360) {tmp2 = 360;}
 754              		.loc 1 173 0
 755 0312 B5F5B47F 		cmp	r5, #360
 756 0316 01D9     		bls	.L36
 757 0318 4FF4B475 		mov	r5, #360
 758              	.LVL89:
 759              	.L36:
 174:cli.c         ****                 
 760              		.loc 1 174 0
 761 031c B4F5B47F 		cmp	r4, #360
 762 0320 01D9     		bls	.L37
 763 0322 4FF4B474 		mov	r4, #360
 764              	.LVL90:
 765              	.L37:
 176:cli.c         ****                 
 766              		.loc 1 176 0
 767 0326 2846     		mov	r0, r5
 768 0328 FFF7FEFF 		bl	__aeabi_i2f
ARM GAS  C:\Users\Dell\AppData\Local\Temp\cc7rf4Ck.s 			page 21


 769              	.LVL91:
 770 032c 9549     		ldr	r1, .L96+20
 771 032e FFF7FEFF 		bl	__aeabi_fmul
 772              	.LVL92:
 773 0332 FFF7FEFF 		bl	__aeabi_f2uiz
 774              	.LVL93:
 775 0336 85B2     		uxth	r5, r0
 776              	.LVL94:
 777 0338 2046     		mov	r0, r4
 778 033a FFF7FEFF 		bl	__aeabi_i2f
 779              	.LVL95:
 780 033e 9149     		ldr	r1, .L96+20
 781 0340 FFF7FEFF 		bl	__aeabi_fmul
 782              	.LVL96:
 783 0344 FFF7FEFF 		bl	__aeabi_f2uiz
 784              	.LVL97:
 785 0348 81B2     		uxth	r1, r0
 786 034a 2846     		mov	r0, r5
 787 034c FFF7FEFF 		bl	setRotation
 788              	.LVL98:
 178:cli.c         ****             }
 789              		.loc 1 178 0
 790 0350 0020     		movs	r0, #0
 791 0352 2DE1     		b	.L24
 792              	.LVL99:
 793              	.L35:
 794              	.LBE12:
 182:cli.c         ****             
 795              		.loc 1 182 0
 796 0354 8C49     		ldr	r1, .L96+24
 797 0356 8748     		ldr	r0, .L96+4
 798 0358 FFF7FEFF 		bl	strcmp
 799              	.LVL100:
 800 035c D8B9     		cbnz	r0, .L38
 184:cli.c         ****                 setBit((ParseArgument(&arg1) > 0), 1, 0x00);
 801              		.loc 1 184 0
 802 035e 864B     		ldr	r3, .L96+8
 803 0360 9B68     		ldr	r3, [r3, #8]
 804 0362 002B     		cmp	r3, #0
 805 0364 40F3E880 		ble	.L76
 184:cli.c         ****                 setBit((ParseArgument(&arg1) > 0), 1, 0x00);
 806              		.loc 1 184 0 is_stmt 0 discriminator 1
 807 0368 844B     		ldr	r3, .L96+12
 808 036a 9B68     		ldr	r3, [r3, #8]
 809 036c 002B     		cmp	r3, #0
 810 036e 40F0E580 		bne	.L77
 184:cli.c         ****                 setBit((ParseArgument(&arg1) > 0), 1, 0x00);
 811              		.loc 1 184 0 discriminator 2
 812 0372 834B     		ldr	r3, .L96+16
 813 0374 9B68     		ldr	r3, [r3, #8]
 814 0376 002B     		cmp	r3, #0
 815 0378 40F0E280 		bne	.L78
 185:cli.c         ****                 return false;
 816              		.loc 1 185 0 is_stmt 1
 817 037c 7E48     		ldr	r0, .L96+8
 818 037e FFF7FEFF 		bl	ParseArgument
 819              	.LVL101:
ARM GAS  C:\Users\Dell\AppData\Local\Temp\cc7rf4Ck.s 			page 22


 820 0382 0022     		movs	r2, #0
 821 0384 0121     		movs	r1, #1
 822 0386 9042     		cmp	r0, r2
 823 0388 D4BF     		ite	le
 824 038a 0020     		movle	r0, #0
 825 038c 0120     		movgt	r0, #1
 826 038e FFF7FEFF 		bl	setBit
 827              	.LVL102:
 186:cli.c         ****             }
 828              		.loc 1 186 0
 829 0392 0020     		movs	r0, #0
 830 0394 0CE1     		b	.L24
 831              	.L38:
 190:cli.c         ****             
 832              		.loc 1 190 0
 833 0396 7D49     		ldr	r1, .L96+28
 834 0398 7648     		ldr	r0, .L96+4
 835 039a FFF7FEFF 		bl	strcmp
 836              	.LVL103:
 837 039e F8B9     		cbnz	r0, .L39
 192:cli.c         ****                 uint8 id = ParseArgument(&arg1);
 838              		.loc 1 192 0
 839 03a0 754B     		ldr	r3, .L96+8
 840 03a2 9B68     		ldr	r3, [r3, #8]
 841 03a4 002B     		cmp	r3, #0
 842 03a6 40F3CD80 		ble	.L79
 192:cli.c         ****                 uint8 id = ParseArgument(&arg1);
 843              		.loc 1 192 0 is_stmt 0 discriminator 1
 844 03aa 744B     		ldr	r3, .L96+12
 845 03ac 9B68     		ldr	r3, [r3, #8]
 846 03ae 002B     		cmp	r3, #0
 847 03b0 40F0CA80 		bne	.L80
 192:cli.c         ****                 uint8 id = ParseArgument(&arg1);
 848              		.loc 1 192 0 discriminator 2
 849 03b4 724B     		ldr	r3, .L96+16
 850 03b6 9B68     		ldr	r3, [r3, #8]
 851 03b8 002B     		cmp	r3, #0
 852 03ba 40F0C780 		bne	.L81
 853              	.LBB13:
 193:cli.c         ****                 if(1 <= id && 16 >= id){
 854              		.loc 1 193 0 is_stmt 1
 855 03be 6E48     		ldr	r0, .L96+8
 856 03c0 FFF7FEFF 		bl	ParseArgument
 857              	.LVL104:
 858 03c4 C0B2     		uxtb	r0, r0
 859              	.LVL105:
 194:cli.c         ****                     saveToSaveSlot(id);
 860              		.loc 1 194 0
 861 03c6 431E     		subs	r3, r0, #1
 862 03c8 DBB2     		uxtb	r3, r3
 863 03ca 0F2B     		cmp	r3, #15
 864 03cc 03D8     		bhi	.L40
 195:cli.c         ****                     return false;
 865              		.loc 1 195 0
 866 03ce FFF7FEFF 		bl	saveToSaveSlot
 867              	.LVL106:
 196:cli.c         ****                 }
ARM GAS  C:\Users\Dell\AppData\Local\Temp\cc7rf4Ck.s 			page 23


 868              		.loc 1 196 0
 869 03d2 0020     		movs	r0, #0
 870 03d4 ECE0     		b	.L24
 871              	.LVL107:
 872              	.L40:
 198:cli.c         ****             }
 873              		.loc 1 198 0
 874 03d6 6E48     		ldr	r0, .L96+32
 875              	.LVL108:
 876 03d8 FFF7FEFF 		bl	UART_PutString
 877              	.LVL109:
 878              	.LBE13:
 200:cli.c         ****             
 879              		.loc 1 200 0
 880 03dc 0120     		movs	r0, #1
 881 03de E7E0     		b	.L24
 882              	.L39:
 202:cli.c         ****             
 883              		.loc 1 202 0
 884 03e0 6C49     		ldr	r1, .L96+36
 885 03e2 6448     		ldr	r0, .L96+4
 886 03e4 FFF7FEFF 		bl	strcmp
 887              	.LVL110:
 888 03e8 D8B9     		cbnz	r0, .L41
 204:cli.c         ****                 
 889              		.loc 1 204 0
 890 03ea 634B     		ldr	r3, .L96+8
 891 03ec 9B68     		ldr	r3, [r3, #8]
 892 03ee 002B     		cmp	r3, #0
 893 03f0 40F0AE80 		bne	.L82
 204:cli.c         ****                 
 894              		.loc 1 204 0 is_stmt 0 discriminator 1
 895 03f4 614B     		ldr	r3, .L96+12
 896 03f6 9B68     		ldr	r3, [r3, #8]
 897 03f8 002B     		cmp	r3, #0
 898 03fa 40F0AB80 		bne	.L83
 204:cli.c         ****                 
 899              		.loc 1 204 0 discriminator 2
 900 03fe 604B     		ldr	r3, .L96+16
 901 0400 9B68     		ldr	r3, [r3, #8]
 902 0402 002B     		cmp	r3, #0
 903 0404 40F0A880 		bne	.L84
 904              	.LBB14:
 206:cli.c         ****                 uint16 y = loadWord(0x03);
 905              		.loc 1 206 0 is_stmt 1
 906 0408 0120     		movs	r0, #1
 907 040a FFF7FEFF 		bl	loadWord
 908              	.LVL111:
 909 040e 0446     		mov	r4, r0
 910              	.LVL112:
 207:cli.c         ****                 
 911              		.loc 1 207 0
 912 0410 0320     		movs	r0, #3
 913 0412 FFF7FEFF 		bl	loadWord
 914              	.LVL113:
 209:cli.c         ****                 
 915              		.loc 1 209 0
ARM GAS  C:\Users\Dell\AppData\Local\Temp\cc7rf4Ck.s 			page 24


 916 0416 0146     		mov	r1, r0
 917 0418 2046     		mov	r0, r4
 918              	.LVL114:
 919 041a FFF7FEFF 		bl	setRotation
 920              	.LVL115:
 211:cli.c         ****             }
 921              		.loc 1 211 0
 922 041e 0020     		movs	r0, #0
 923 0420 C6E0     		b	.L24
 924              	.LVL116:
 925              	.L41:
 926              	.LBE14:
 215:cli.c         ****             
 927              		.loc 1 215 0
 928 0422 5D49     		ldr	r1, .L96+40
 929 0424 5348     		ldr	r0, .L96+4
 930 0426 FFF7FEFF 		bl	strcmp
 931              	.LVL117:
 932 042a 0028     		cmp	r0, #0
 933 042c 00F09680 		beq	.L85
 220:cli.c         ****             
 934              		.loc 1 220 0
 935 0430 5A49     		ldr	r1, .L96+44
 936 0432 5048     		ldr	r0, .L96+4
 937 0434 FFF7FEFF 		bl	strcmp
 938              	.LVL118:
 939 0438 F8B9     		cbnz	r0, .L42
 222:cli.c         ****                 uint8 id = ParseArgument(&arg1);
 940              		.loc 1 222 0
 941 043a 4F4B     		ldr	r3, .L96+8
 942 043c 9B68     		ldr	r3, [r3, #8]
 943 043e 002B     		cmp	r3, #0
 944 0440 40F38E80 		ble	.L86
 222:cli.c         ****                 uint8 id = ParseArgument(&arg1);
 945              		.loc 1 222 0 is_stmt 0 discriminator 1
 946 0444 4D4B     		ldr	r3, .L96+12
 947 0446 9B68     		ldr	r3, [r3, #8]
 948 0448 002B     		cmp	r3, #0
 949 044a 40F08B80 		bne	.L87
 222:cli.c         ****                 uint8 id = ParseArgument(&arg1);
 950              		.loc 1 222 0 discriminator 2
 951 044e 4C4B     		ldr	r3, .L96+16
 952 0450 9B68     		ldr	r3, [r3, #8]
 953 0452 002B     		cmp	r3, #0
 954 0454 40F08880 		bne	.L88
 955              	.LBB15:
 223:cli.c         ****                 if(1 <= id && 16 >= id){
 956              		.loc 1 223 0 is_stmt 1
 957 0458 4748     		ldr	r0, .L96+8
 958 045a FFF7FEFF 		bl	ParseArgument
 959              	.LVL119:
 960 045e C0B2     		uxtb	r0, r0
 961              	.LVL120:
 224:cli.c         ****                     moveToSaveSlot(id);
 962              		.loc 1 224 0
 963 0460 431E     		subs	r3, r0, #1
 964 0462 DBB2     		uxtb	r3, r3
ARM GAS  C:\Users\Dell\AppData\Local\Temp\cc7rf4Ck.s 			page 25


 965 0464 0F2B     		cmp	r3, #15
 966 0466 03D8     		bhi	.L43
 225:cli.c         ****                     return false;
 967              		.loc 1 225 0
 968 0468 FFF7FEFF 		bl	moveToSaveSlot
 969              	.LVL121:
 226:cli.c         ****                 }
 970              		.loc 1 226 0
 971 046c 0020     		movs	r0, #0
 972 046e 9FE0     		b	.L24
 973              	.LVL122:
 974              	.L43:
 228:cli.c         ****             }
 975              		.loc 1 228 0
 976 0470 4748     		ldr	r0, .L96+32
 977              	.LVL123:
 978 0472 FFF7FEFF 		bl	UART_PutString
 979              	.LVL124:
 980              	.LBE15:
 230:cli.c         ****             
 981              		.loc 1 230 0
 982 0476 0120     		movs	r0, #1
 983 0478 9AE0     		b	.L24
 984              	.L42:
 232:cli.c         ****             
 985              		.loc 1 232 0
 986 047a 4949     		ldr	r1, .L96+48
 987 047c 3D48     		ldr	r0, .L96+4
 988 047e FFF7FEFF 		bl	strcmp
 989              	.LVL125:
 990 0482 38BB     		cbnz	r0, .L44
 234:cli.c         ****                 listSaveSlots();
 991              		.loc 1 234 0
 992 0484 3C4B     		ldr	r3, .L96+8
 993 0486 9B68     		ldr	r3, [r3, #8]
 994 0488 4BB9     		cbnz	r3, .L45
 234:cli.c         ****                 listSaveSlots();
 995              		.loc 1 234 0 is_stmt 0 discriminator 1
 996 048a 3C4A     		ldr	r2, .L96+12
 997 048c 9268     		ldr	r2, [r2, #8]
 998 048e 32B9     		cbnz	r2, .L45
 234:cli.c         ****                 listSaveSlots();
 999              		.loc 1 234 0 discriminator 2
 1000 0490 3B4A     		ldr	r2, .L96+16
 1001 0492 9268     		ldr	r2, [r2, #8]
 1002 0494 1AB9     		cbnz	r2, .L45
 235:cli.c         ****                 return false;
 1003              		.loc 1 235 0 is_stmt 1
 1004 0496 FFF7FEFF 		bl	listSaveSlots
 1005              	.LVL126:
 236:cli.c         ****             } else if(arg1.cnt > 0 && arg2.cnt == 0 && arg3.cnt == 0){
 1006              		.loc 1 236 0
 1007 049a 0020     		movs	r0, #0
 1008 049c 88E0     		b	.L24
 1009              	.L45:
 237:cli.c         ****                 uint8 id = ParseArgument(&arg1);
 1010              		.loc 1 237 0
ARM GAS  C:\Users\Dell\AppData\Local\Temp\cc7rf4Ck.s 			page 26


 1011 049e 002B     		cmp	r3, #0
 1012 04a0 64DD     		ble	.L89
 237:cli.c         ****                 uint8 id = ParseArgument(&arg1);
 1013              		.loc 1 237 0 is_stmt 0 discriminator 1
 1014 04a2 364B     		ldr	r3, .L96+12
 1015 04a4 9B68     		ldr	r3, [r3, #8]
 1016 04a6 002B     		cmp	r3, #0
 1017 04a8 7CD1     		bne	.L90
 237:cli.c         ****                 uint8 id = ParseArgument(&arg1);
 1018              		.loc 1 237 0 discriminator 2
 1019 04aa 354B     		ldr	r3, .L96+16
 1020 04ac 9B68     		ldr	r3, [r3, #8]
 1021 04ae 002B     		cmp	r3, #0
 1022 04b0 7AD1     		bne	.L91
 1023              	.LBB16:
 238:cli.c         ****                 if(1 <= id && 16 >= id){
 1024              		.loc 1 238 0 is_stmt 1
 1025 04b2 3148     		ldr	r0, .L96+8
 1026 04b4 FFF7FEFF 		bl	ParseArgument
 1027              	.LVL127:
 1028 04b8 C0B2     		uxtb	r0, r0
 1029              	.LVL128:
 239:cli.c         ****                     saveSlotDetails(id);
 1030              		.loc 1 239 0
 1031 04ba 431E     		subs	r3, r0, #1
 1032 04bc DBB2     		uxtb	r3, r3
 1033 04be 0F2B     		cmp	r3, #15
 1034 04c0 03D8     		bhi	.L46
 240:cli.c         ****                     return false;
 1035              		.loc 1 240 0
 1036 04c2 FFF7FEFF 		bl	saveSlotDetails
 1037              	.LVL129:
 241:cli.c         ****                 }
 1038              		.loc 1 241 0
 1039 04c6 0020     		movs	r0, #0
 1040 04c8 72E0     		b	.L24
 1041              	.LVL130:
 1042              	.L46:
 243:cli.c         ****             }
 1043              		.loc 1 243 0
 1044 04ca 3148     		ldr	r0, .L96+32
 1045              	.LVL131:
 1046 04cc FFF7FEFF 		bl	UART_PutString
 1047              	.LVL132:
 1048              	.LBE16:
 245:cli.c         ****             
 1049              		.loc 1 245 0
 1050 04d0 0120     		movs	r0, #1
 1051 04d2 6DE0     		b	.L24
 1052              	.L44:
 1053              	.LBE5:
 249:cli.c         **** }
 1054              		.loc 1 249 0
 1055 04d4 0120     		movs	r0, #1
 1056              	.LBB17:
 1057 04d6 6BE0     		b	.L24
 1058              	.L48:
ARM GAS  C:\Users\Dell\AppData\Local\Temp\cc7rf4Ck.s 			page 27


  92:cli.c         ****             
 1059              		.loc 1 92 0
 1060 04d8 0120     		movs	r0, #1
 1061 04da 69E0     		b	.L24
 1062              	.L49:
 1063 04dc 0120     		movs	r0, #1
 1064 04de 67E0     		b	.L24
 1065              	.L50:
 1066 04e0 0120     		movs	r0, #1
 1067 04e2 65E0     		b	.L24
 1068              	.L51:
 105:cli.c         ****             
 1069              		.loc 1 105 0
 1070 04e4 0120     		movs	r0, #1
 1071 04e6 63E0     		b	.L24
 1072              	.L52:
 1073 04e8 0120     		movs	r0, #1
 1074 04ea 61E0     		b	.L24
 1075              	.L53:
 1076 04ec 0120     		movs	r0, #1
 1077 04ee 5FE0     		b	.L24
 1078              	.L54:
 115:cli.c         ****             
 1079              		.loc 1 115 0
 1080 04f0 0120     		movs	r0, #1
 1081 04f2 5DE0     		b	.L24
 1082              	.L55:
 1083 04f4 0120     		movs	r0, #1
 1084 04f6 5BE0     		b	.L24
 1085              	.L56:
 1086 04f8 0120     		movs	r0, #1
 1087 04fa 59E0     		b	.L24
 1088              	.L57:
 125:cli.c         ****             
 1089              		.loc 1 125 0
 1090 04fc 0120     		movs	r0, #1
 1091 04fe 57E0     		b	.L24
 1092              	.L58:
 1093 0500 0120     		movs	r0, #1
 1094 0502 55E0     		b	.L24
 1095              	.L59:
 1096 0504 0120     		movs	r0, #1
 1097 0506 53E0     		b	.L24
 1098              	.L60:
 138:cli.c         ****             
 1099              		.loc 1 138 0
 1100 0508 0120     		movs	r0, #1
 1101 050a 51E0     		b	.L24
 1102              	.L61:
 1103 050c 0120     		movs	r0, #1
 1104 050e 4FE0     		b	.L24
 1105              	.L62:
 1106 0510 0120     		movs	r0, #1
 1107 0512 4DE0     		b	.L24
 1108              	.L63:
 155:cli.c         ****             
 1109              		.loc 1 155 0
ARM GAS  C:\Users\Dell\AppData\Local\Temp\cc7rf4Ck.s 			page 28


 1110 0514 0120     		movs	r0, #1
 1111 0516 4BE0     		b	.L24
 1112              	.L64:
 1113 0518 0120     		movs	r0, #1
 1114 051a 49E0     		b	.L24
 1115              	.L65:
 1116 051c 0120     		movs	r0, #1
 1117 051e 47E0     		b	.L24
 1118              	.L68:
 163:cli.c         ****             
 1119              		.loc 1 163 0
 1120 0520 0120     		movs	r0, #1
 1121 0522 45E0     		b	.L24
 1122              	.L69:
 1123 0524 0120     		movs	r0, #1
 1124 0526 43E0     		b	.L24
 1125              	.L70:
 1126 0528 0120     		movs	r0, #1
 1127 052a 41E0     		b	.L24
 1128              	.L71:
 180:cli.c         ****             
 1129              		.loc 1 180 0
 1130 052c 0120     		movs	r0, #1
 1131 052e 3FE0     		b	.L24
 1132              	.L72:
 1133 0530 0120     		movs	r0, #1
 1134 0532 3DE0     		b	.L24
 1135              	.L73:
 1136 0534 0120     		movs	r0, #1
 1137 0536 3BE0     		b	.L24
 1138              	.L76:
 188:cli.c         ****             
 1139              		.loc 1 188 0
 1140 0538 0120     		movs	r0, #1
 1141 053a 39E0     		b	.L24
 1142              	.L77:
 1143 053c 0120     		movs	r0, #1
 1144 053e 37E0     		b	.L24
 1145              	.L78:
 1146 0540 0120     		movs	r0, #1
 1147 0542 35E0     		b	.L24
 1148              	.L79:
 200:cli.c         ****             
 1149              		.loc 1 200 0
 1150 0544 0120     		movs	r0, #1
 1151 0546 33E0     		b	.L24
 1152              	.L80:
 1153 0548 0120     		movs	r0, #1
 1154 054a 31E0     		b	.L24
 1155              	.L81:
 1156 054c 0120     		movs	r0, #1
 1157 054e 2FE0     		b	.L24
 1158              	.L82:
 213:cli.c         ****             
 1159              		.loc 1 213 0
 1160 0550 0120     		movs	r0, #1
 1161 0552 2DE0     		b	.L24
ARM GAS  C:\Users\Dell\AppData\Local\Temp\cc7rf4Ck.s 			page 29


 1162              	.L83:
 1163 0554 0120     		movs	r0, #1
 1164 0556 2BE0     		b	.L24
 1165              	.L84:
 1166 0558 0120     		movs	r0, #1
 1167 055a 29E0     		b	.L24
 1168              	.L85:
 218:cli.c         ****             
 1169              		.loc 1 218 0
 1170 055c 0120     		movs	r0, #1
 1171 055e 27E0     		b	.L24
 1172              	.L86:
 230:cli.c         ****             
 1173              		.loc 1 230 0
 1174 0560 0120     		movs	r0, #1
 1175 0562 25E0     		b	.L24
 1176              	.L87:
 1177 0564 0120     		movs	r0, #1
 1178 0566 23E0     		b	.L24
 1179              	.L88:
 1180 0568 0120     		movs	r0, #1
 1181 056a 21E0     		b	.L24
 1182              	.L89:
 245:cli.c         ****             
 1183              		.loc 1 245 0
 1184 056c 0120     		movs	r0, #1
 1185 056e 1FE0     		b	.L24
 1186              	.L97:
 1187              		.align	2
 1188              	.L96:
 1189 0570 7C000000 		.word	.LC10
 1190 0574 00000000 		.word	cmd
 1191 0578 00000000 		.word	arg1
 1192 057c 00000000 		.word	arg2
 1193 0580 00000000 		.word	arg3
 1194 0584 610B3641 		.word	1094060897
 1195 0588 84000000 		.word	.LC11
 1196 058c 8C000000 		.word	.LC12
 1197 0590 94000000 		.word	.LC13
 1198 0594 A0000000 		.word	.LC14
 1199 0598 A8000000 		.word	.LC15
 1200 059c B0000000 		.word	.LC16
 1201 05a0 B8000000 		.word	.LC17
 1202              	.L90:
 1203 05a4 0120     		movs	r0, #1
 1204 05a6 03E0     		b	.L24
 1205              	.L91:
 1206 05a8 0120     		movs	r0, #1
 1207 05aa 01E0     		b	.L24
 1208              	.L47:
 1209              		.cfi_def_cfa_offset 0
 1210              		.cfi_restore 4
 1211              		.cfi_restore 5
 1212              		.cfi_restore 14
 1213              	.LBE17:
 249:cli.c         **** }
 1214              		.loc 1 249 0
ARM GAS  C:\Users\Dell\AppData\Local\Temp\cc7rf4Ck.s 			page 30


 1215 05ac 0120     		movs	r0, #1
 1216 05ae 7047     		bx	lr
 1217              	.L24:
 1218              		.cfi_def_cfa_offset 64
 1219              		.cfi_offset 4, -12
 1220              		.cfi_offset 5, -8
 1221              		.cfi_offset 14, -4
 250:cli.c         **** 
 1222              		.loc 1 250 0 discriminator 6
 1223 05b0 0DB0     		add	sp, sp, #52
 1224              		.cfi_def_cfa_offset 12
 1225              		@ sp needed
 1226 05b2 30BD     		pop	{r4, r5, pc}
 1227              		.cfi_endproc
 1228              	.LFE66:
 1229              		.size	ProcessCommand, .-ProcessCommand
 1230              		.section	.text.CLI_Update,"ax",%progbits
 1231              		.align	2
 1232              		.global	CLI_Update
 1233              		.thumb
 1234              		.thumb_func
 1235              		.type	CLI_Update, %function
 1236              	CLI_Update:
 1237              	.LFB65:
  23:cli.c         ****     char inChar = UART_GetChar();
 1238              		.loc 1 23 0
 1239              		.cfi_startproc
 1240              		@ args = 0, pretend = 0, frame = 0
 1241              		@ frame_needed = 0, uses_anonymous_args = 0
 1242 0000 10B5     		push	{r4, lr}
 1243              		.cfi_def_cfa_offset 8
 1244              		.cfi_offset 4, -8
 1245              		.cfi_offset 14, -4
  24:cli.c         ****         if(inChar != 0){
 1246              		.loc 1 24 0
 1247 0002 FFF7FEFF 		bl	UART_GetChar
 1248              	.LVL133:
  25:cli.c         ****             UART_PutChar(inChar);
 1249              		.loc 1 25 0
 1250 0006 0028     		cmp	r0, #0
 1251 0008 57D0     		beq	.L98
 1252 000a 0446     		mov	r4, r0
 1253              	.LBB18:
  26:cli.c         ****             bool error = false;
 1254              		.loc 1 26 0
 1255 000c FFF7FEFF 		bl	UART_PutChar
 1256              	.LVL134:
  28:cli.c         ****                 case 13:
 1257              		.loc 1 28 0
 1258 0010 0D2C     		cmp	r4, #13
 1259 0012 02D0     		beq	.L101
 1260 0014 202C     		cmp	r4, #32
 1261 0016 0ED0     		beq	.L102
 1262 0018 26E0     		b	.L116
 1263              	.L101:
  30:cli.c         ****                     readState = CMD;
 1264              		.loc 1 30 0
ARM GAS  C:\Users\Dell\AppData\Local\Temp\cc7rf4Ck.s 			page 31


 1265 001a 2848     		ldr	r0, .L118
 1266 001c FFF7FEFF 		bl	UART_PutString
 1267              	.LVL135:
  31:cli.c         ****                     error = ProcessCommand();
 1268              		.loc 1 31 0
 1269 0020 0022     		movs	r2, #0
 1270 0022 274B     		ldr	r3, .L118+4
 1271 0024 1A70     		strb	r2, [r3]
  32:cli.c         ****                     if(!error){
 1272              		.loc 1 32 0
 1273 0026 FFF7FEFF 		bl	ProcessCommand
 1274              	.LVL136:
  33:cli.c         ****                         ResetInput();
 1275              		.loc 1 33 0
 1276 002a 0446     		mov	r4, r0
 1277 002c 0028     		cmp	r0, #0
 1278 002e 3ED1     		bne	.L103
  34:cli.c         ****                     }
 1279              		.loc 1 34 0
 1280 0030 FFF7FEFF 		bl	ResetInput
 1281              	.LVL137:
 1282 0034 3BE0     		b	.L103
 1283              	.LVL138:
 1284              	.L102:
  38:cli.c         ****                         case CMD:
 1285              		.loc 1 38 0
 1286 0036 224B     		ldr	r3, .L118+4
 1287 0038 1B78     		ldrb	r3, [r3]	@ zero_extendqisi2
 1288 003a 032B     		cmp	r3, #3
 1289 003c 03D8     		bhi	.L104
 1290 003e DFE803F0 		tbb	[pc, r3]
 1291              	.L106:
 1292 0042 04       		.byte	(.L105-.L106)/2
 1293 0043 09       		.byte	(.L107-.L106)/2
 1294 0044 0E       		.byte	(.L108-.L106)/2
 1295 0045 33       		.byte	(.L114-.L106)/2
 1296              		.p2align 1
 1297              	.L104:
  27:cli.c         ****             switch(inChar){
 1298              		.loc 1 27 0
 1299 0046 0024     		movs	r4, #0
 1300 0048 31E0     		b	.L103
 1301              	.L105:
  40:cli.c         ****                             break;
 1302              		.loc 1 40 0
 1303 004a 0122     		movs	r2, #1
 1304 004c 1C4B     		ldr	r3, .L118+4
 1305 004e 1A70     		strb	r2, [r3]
  27:cli.c         ****             switch(inChar){
 1306              		.loc 1 27 0
 1307 0050 0024     		movs	r4, #0
  41:cli.c         ****                         case ARG1:
 1308              		.loc 1 41 0
 1309 0052 2CE0     		b	.L103
 1310              	.L107:
  43:cli.c         ****                             break;
 1311              		.loc 1 43 0
ARM GAS  C:\Users\Dell\AppData\Local\Temp\cc7rf4Ck.s 			page 32


 1312 0054 0222     		movs	r2, #2
 1313 0056 1A4B     		ldr	r3, .L118+4
 1314 0058 1A70     		strb	r2, [r3]
  27:cli.c         ****             switch(inChar){
 1315              		.loc 1 27 0
 1316 005a 0024     		movs	r4, #0
  44:cli.c         ****                         case ARG2:
 1317              		.loc 1 44 0
 1318 005c 27E0     		b	.L103
 1319              	.L108:
  46:cli.c         ****                             break;
 1320              		.loc 1 46 0
 1321 005e 0322     		movs	r2, #3
 1322 0060 174B     		ldr	r3, .L118+4
 1323 0062 1A70     		strb	r2, [r3]
  27:cli.c         ****             switch(inChar){
 1324              		.loc 1 27 0
 1325 0064 0024     		movs	r4, #0
  47:cli.c         ****                         case ARG3:
 1326              		.loc 1 47 0
 1327 0066 22E0     		b	.L103
 1328              	.L116:
  54:cli.c         ****                         case CMD:
 1329              		.loc 1 54 0
 1330 0068 154B     		ldr	r3, .L118+4
 1331 006a 1B78     		ldrb	r3, [r3]	@ zero_extendqisi2
 1332 006c 032B     		cmp	r3, #3
 1333 006e 1DD8     		bhi	.L115
 1334 0070 DFE803F0 		tbb	[pc, r3]
 1335              	.L110:
 1336 0074 02       		.byte	(.L109-.L110)/2
 1337 0075 08       		.byte	(.L111-.L110)/2
 1338 0076 0E       		.byte	(.L112-.L110)/2
 1339 0077 14       		.byte	(.L113-.L110)/2
 1340              		.p2align 1
 1341              	.L109:
  56:cli.c         ****                             break;
 1342              		.loc 1 56 0
 1343 0078 1249     		ldr	r1, .L118+8
 1344 007a 2046     		mov	r0, r4
 1345 007c FFF7FEFF 		bl	AddCommandChar
 1346              	.LVL139:
 1347 0080 0446     		mov	r4, r0
 1348              	.LVL140:
  57:cli.c         ****                         case ARG1:
 1349              		.loc 1 57 0
 1350 0082 14E0     		b	.L103
 1351              	.LVL141:
 1352              	.L111:
  59:cli.c         ****                             break;
 1353              		.loc 1 59 0
 1354 0084 1049     		ldr	r1, .L118+12
 1355 0086 2046     		mov	r0, r4
 1356 0088 FFF7FEFF 		bl	AddArgumentDigit
 1357              	.LVL142:
 1358 008c 0446     		mov	r4, r0
 1359              	.LVL143:
ARM GAS  C:\Users\Dell\AppData\Local\Temp\cc7rf4Ck.s 			page 33


  60:cli.c         ****                         case ARG2:
 1360              		.loc 1 60 0
 1361 008e 0EE0     		b	.L103
 1362              	.LVL144:
 1363              	.L112:
  62:cli.c         ****                             break;
 1364              		.loc 1 62 0
 1365 0090 0E49     		ldr	r1, .L118+16
 1366 0092 2046     		mov	r0, r4
 1367 0094 FFF7FEFF 		bl	AddArgumentDigit
 1368              	.LVL145:
 1369 0098 0446     		mov	r4, r0
 1370              	.LVL146:
  63:cli.c         ****                         case ARG3:
 1371              		.loc 1 63 0
 1372 009a 08E0     		b	.L103
 1373              	.LVL147:
 1374              	.L113:
  65:cli.c         ****                             break;
 1375              		.loc 1 65 0
 1376 009c 0C49     		ldr	r1, .L118+20
 1377 009e 2046     		mov	r0, r4
 1378 00a0 FFF7FEFF 		bl	AddArgumentDigit
 1379              	.LVL148:
 1380 00a4 0446     		mov	r4, r0
 1381              	.LVL149:
  66:cli.c         ****                     }
 1382              		.loc 1 66 0
 1383 00a6 02E0     		b	.L103
 1384              	.LVL150:
 1385              	.L114:
  49:cli.c         ****                             break;
 1386              		.loc 1 49 0
 1387 00a8 0124     		movs	r4, #1
 1388 00aa 00E0     		b	.L103
 1389              	.L115:
  27:cli.c         ****             switch(inChar){
 1390              		.loc 1 27 0
 1391 00ac 0024     		movs	r4, #0
 1392              	.LVL151:
 1393              	.L103:
  71:cli.c         ****                 ResetInput();
 1394              		.loc 1 71 0
 1395 00ae 24B1     		cbz	r4, .L98
  72:cli.c         ****                 UART_PutString("Error, resetting input processor.\r\n");
 1396              		.loc 1 72 0
 1397 00b0 FFF7FEFF 		bl	ResetInput
 1398              	.LVL152:
  73:cli.c         ****             }
 1399              		.loc 1 73 0
 1400 00b4 0748     		ldr	r0, .L118+24
 1401 00b6 FFF7FEFF 		bl	UART_PutString
 1402              	.LVL153:
 1403              	.L98:
 1404 00ba 10BD     		pop	{r4, pc}
 1405              	.L119:
 1406              		.align	2
ARM GAS  C:\Users\Dell\AppData\Local\Temp\cc7rf4Ck.s 			page 34


 1407              	.L118:
 1408 00bc C0000000 		.word	.LC18
 1409 00c0 00000000 		.word	.LANCHOR0
 1410 00c4 00000000 		.word	cmd
 1411 00c8 00000000 		.word	arg1
 1412 00cc 00000000 		.word	arg2
 1413 00d0 00000000 		.word	arg3
 1414 00d4 C4000000 		.word	.LC19
 1415              	.LBE18:
 1416              		.cfi_endproc
 1417              	.LFE65:
 1418              		.size	CLI_Update, .-CLI_Update
 1419              		.global	readState
 1420              		.comm	arg3,12,4
 1421              		.comm	arg2,12,4
 1422              		.comm	arg1,12,4
 1423              		.comm	cmd,12,4
 1424              		.section	.rodata.str1.4,"aMS",%progbits,1
 1425              		.align	2
 1426              	.LC0:
 1427 0000 72686F6D 		.ascii	"rhom\000"
 1427      00
 1428 0005 000000   		.space	3
 1429              	.LC1:
 1430 0008 486F6D65 		.ascii	"Home: X=%d Y=%d\015\012\000"
 1430      3A20583D 
 1430      25642059 
 1430      3D25640D 
 1430      0A00
 1431 001a 0000     		.space	2
 1432              	.LC2:
 1433 001c 72686F72 		.ascii	"rhor\000"
 1433      00
 1434 0021 000000   		.space	3
 1435              	.LC3:
 1436 0024 486F6D65 		.ascii	"Home on restart: %d\015\012\000"
 1436      206F6E20 
 1436      72657374 
 1436      6172743A 
 1436      2025640D 
 1437 003a 0000     		.space	2
 1438              	.LC4:
 1439 003c 72616374 		.ascii	"ract\000"
 1439      00
 1440 0041 000000   		.space	3
 1441              	.LC5:
 1442 0044 72706F73 		.ascii	"rpos\000"
 1442      00
 1443 0049 000000   		.space	3
 1444              	.LC6:
 1445 004c 72736F73 		.ascii	"rsos\000"
 1445      00
 1446 0051 000000   		.space	3
 1447              	.LC7:
 1448 0054 5369676E 		.ascii	"Signal on restart: %d\015\012\000"
 1448      616C206F 
 1448      6E207265 
ARM GAS  C:\Users\Dell\AppData\Local\Temp\cc7rf4Ck.s 			page 35


 1448      73746172 
 1448      743A2025 
 1449              	.LC8:
 1450 006c 77686F6D 		.ascii	"whom\000"
 1450      00
 1451 0071 000000   		.space	3
 1452              	.LC9:
 1453 0074 77686F72 		.ascii	"whor\000"
 1453      00
 1454 0079 000000   		.space	3
 1455              	.LC10:
 1456 007c 77706F73 		.ascii	"wpos\000"
 1456      00
 1457 0081 000000   		.space	3
 1458              	.LC11:
 1459 0084 77736F73 		.ascii	"wsos\000"
 1459      00
 1460 0089 000000   		.space	3
 1461              	.LC12:
 1462 008c 77706F69 		.ascii	"wpoi\000"
 1462      00
 1463 0091 000000   		.space	3
 1464              	.LC13:
 1465 0094 496E7661 		.ascii	"Invalid ID.\000"
 1465      6C696420 
 1465      49442E00 
 1466              	.LC14:
 1467 00a0 6D686F6D 		.ascii	"mhom\000"
 1467      00
 1468 00a5 000000   		.space	3
 1469              	.LC15:
 1470 00a8 6D616374 		.ascii	"mact\000"
 1470      00
 1471 00ad 000000   		.space	3
 1472              	.LC16:
 1473 00b0 6D706F69 		.ascii	"mpoi\000"
 1473      00
 1474 00b5 000000   		.space	3
 1475              	.LC17:
 1476 00b8 72706F69 		.ascii	"rpoi\000"
 1476      00
 1477 00bd 000000   		.space	3
 1478              	.LC18:
 1479 00c0 0D0A00   		.ascii	"\015\012\000"
 1480 00c3 00       		.space	1
 1481              	.LC19:
 1482 00c4 4572726F 		.ascii	"Error, resetting input processor.\015\012\000"
 1482      722C2072 
 1482      65736574 
 1482      74696E67 
 1482      20696E70 
 1483              		.bss
 1484              		.set	.LANCHOR0,. + 0
 1485              		.type	readState, %object
 1486              		.size	readState, 1
 1487              	readState:
 1488 0000 00       		.space	1
ARM GAS  C:\Users\Dell\AppData\Local\Temp\cc7rf4Ck.s 			page 36


 1489              		.text
 1490              	.Letext0:
 1491              		.file 2 "c:\\program files (x86)\\cypress\\psoc creator\\4.4\\psoc creator\\import\\gnu\\arm\\5.4.
 1492              		.file 3 "c:\\program files (x86)\\cypress\\psoc creator\\4.4\\psoc creator\\import\\gnu\\arm\\5.4.
 1493              		.file 4 "Generated_Source\\PSoC5/cytypes.h"
 1494              		.file 5 "cli.h"
 1495              		.file 6 "rotation.h"
 1496              		.file 7 "c:\\program files (x86)\\cypress\\psoc creator\\4.4\\psoc creator\\import\\gnu\\arm\\5.4.
 1497              		.file 8 "Generated_Source\\PSoC5/core_cm3.h"
 1498              		.file 9 "eeprom.h"
 1499              		.file 10 "c:\\program files (x86)\\cypress\\psoc creator\\4.4\\psoc creator\\import\\gnu\\arm\\5.4
 1500              		.file 11 "Generated_Source\\PSoC5/UART.h"
 1501              		.file 12 "bsp.h"
 1502              		.file 13 "c:\\program files (x86)\\cypress\\psoc creator\\4.4\\psoc creator\\import\\gnu\\arm\\5.4