ARM GAS  C:\Users\Dell\AppData\Local\Temp\cco4Kole.s 			page 1


   1              		.syntax unified
   2              		.cpu cortex-m3
   3              		.fpu softvfp
   4              		.eabi_attribute 20, 1
   5              		.eabi_attribute 21, 1
   6              		.eabi_attribute 23, 3
   7              		.eabi_attribute 24, 1
   8              		.eabi_attribute 25, 1
   9              		.eabi_attribute 26, 1
  10              		.eabi_attribute 30, 1
  11              		.eabi_attribute 34, 1
  12              		.eabi_attribute 18, 4
  13              		.thumb
  14              		.syntax unified
  15              		.file	"eeprom.c"
  16              		.text
  17              	.Ltext0:
  18              		.cfi_sections	.debug_frame
  19              		.section	.text.saveWord,"ax",%progbits
  20              		.align	2
  21              		.global	saveWord
  22              		.thumb
  23              		.thumb_func
  24              		.type	saveWord, %function
  25              	saveWord:
  26              	.LFB63:
  27              		.file 1 "eeprom.c"
   1:eeprom.c      **** /* ========================================
   2:eeprom.c      ****  *
   3:eeprom.c      ****  * Copyright YOUR COMPANY, THE YEAR
   4:eeprom.c      ****  * All Rights Reserved
   5:eeprom.c      ****  * UNPUBLISHED, LICENSED SOFTWARE.
   6:eeprom.c      ****  *
   7:eeprom.c      ****  * CONFIDENTIAL AND PROPRIETARY INFORMATION
   8:eeprom.c      ****  * WHICH IS THE PROPERTY OF your company.
   9:eeprom.c      ****  *
  10:eeprom.c      ****  * ========================================
  11:eeprom.c      **** */
  12:eeprom.c      **** #include "eeprom.h"
  13:eeprom.c      **** 
  14:eeprom.c      **** void saveWord(uint16 data, uint8 address){ 
  28              		.loc 1 14 0
  29              		.cfi_startproc
  30              		@ args = 0, pretend = 0, frame = 0
  31              		@ frame_needed = 0, uses_anonymous_args = 0
  32              	.LVL0:
  33 0000 38B5     		push	{r3, r4, r5, lr}
  34              		.cfi_def_cfa_offset 16
  35              		.cfi_offset 3, -16
  36              		.cfi_offset 4, -12
  37              		.cfi_offset 5, -8
  38              		.cfi_offset 14, -4
  39 0002 0446     		mov	r4, r0
  15:eeprom.c      ****     EEPROM_1_WriteByte((data >> 8), address);
  40              		.loc 1 15 0
  41 0004 0D46     		mov	r5, r1
  42 0006 000A     		lsrs	r0, r0, #8
ARM GAS  C:\Users\Dell\AppData\Local\Temp\cco4Kole.s 			page 2


  43              	.LVL1:
  44 0008 FFF7FEFF 		bl	EEPROM_1_WriteByte
  45              	.LVL2:
  16:eeprom.c      ****     EEPROM_1_WriteByte((data & 0x00ff), address + 1);
  46              		.loc 1 16 0
  47 000c 691C     		adds	r1, r5, #1
  48 000e E0B2     		uxtb	r0, r4
  49 0010 FFF7FEFF 		bl	EEPROM_1_WriteByte
  50              	.LVL3:
  51 0014 38BD     		pop	{r3, r4, r5, pc}
  52              		.cfi_endproc
  53              	.LFE63:
  54              		.size	saveWord, .-saveWord
  55 0016 00BF     		.section	.text.loadWord,"ax",%progbits
  56              		.align	2
  57              		.global	loadWord
  58              		.thumb
  59              		.thumb_func
  60              		.type	loadWord, %function
  61              	loadWord:
  62              	.LFB64:
  17:eeprom.c      **** }
  18:eeprom.c      **** 
  19:eeprom.c      **** uint16 loadWord(uint8 address){
  63              		.loc 1 19 0
  64              		.cfi_startproc
  65              		@ args = 0, pretend = 0, frame = 0
  66              		@ frame_needed = 0, uses_anonymous_args = 0
  67              	.LVL4:
  68 0000 38B5     		push	{r3, r4, r5, lr}
  69              		.cfi_def_cfa_offset 16
  70              		.cfi_offset 3, -16
  71              		.cfi_offset 4, -12
  72              		.cfi_offset 5, -8
  73              		.cfi_offset 14, -4
  20:eeprom.c      ****     uint8 tmp1, tmp2;
  21:eeprom.c      ****     
  22:eeprom.c      ****     tmp1 = EEPROM_1_ReadByte(address);
  74              		.loc 1 22 0
  75 0002 0546     		mov	r5, r0
  76 0004 FFF7FEFF 		bl	EEPROM_1_ReadByte
  77              	.LVL5:
  78 0008 0446     		mov	r4, r0
  79              	.LVL6:
  23:eeprom.c      ****     tmp2 = EEPROM_1_ReadByte(address + 1);
  80              		.loc 1 23 0
  81 000a 681C     		adds	r0, r5, #1
  82 000c FFF7FEFF 		bl	EEPROM_1_ReadByte
  83              	.LVL7:
  24:eeprom.c      ****     
  25:eeprom.c      ****     uint16 res = (tmp1<<8) + tmp2;
  84              		.loc 1 25 0
  85 0010 00EB0420 		add	r0, r0, r4, lsl #8
  86              	.LVL8:
  26:eeprom.c      ****     
  27:eeprom.c      ****     return res;
  28:eeprom.c      **** }
ARM GAS  C:\Users\Dell\AppData\Local\Temp\cco4Kole.s 			page 3


  87              		.loc 1 28 0
  88 0014 80B2     		uxth	r0, r0
  89 0016 38BD     		pop	{r3, r4, r5, pc}
  90              		.cfi_endproc
  91              	.LFE64:
  92              		.size	loadWord, .-loadWord
  93              		.section	.text.setBit,"ax",%progbits
  94              		.align	2
  95              		.global	setBit
  96              		.thumb
  97              		.thumb_func
  98              		.type	setBit, %function
  99              	setBit:
 100              	.LFB65:
  29:eeprom.c      **** 
  30:eeprom.c      **** void setBit(bool value, uint8 bit, uint8 address){
 101              		.loc 1 30 0
 102              		.cfi_startproc
 103              		@ args = 0, pretend = 0, frame = 0
 104              		@ frame_needed = 0, uses_anonymous_args = 0
 105              	.LVL9:
 106 0000 70B5     		push	{r4, r5, r6, lr}
 107              		.cfi_def_cfa_offset 16
 108              		.cfi_offset 4, -16
 109              		.cfi_offset 5, -12
 110              		.cfi_offset 6, -8
 111              		.cfi_offset 14, -4
 112 0002 0646     		mov	r6, r0
 113 0004 0D46     		mov	r5, r1
  31:eeprom.c      ****     uint8 tmp = EEPROM_1_ReadByte(address);
 114              		.loc 1 31 0
 115 0006 1446     		mov	r4, r2
 116 0008 1046     		mov	r0, r2
 117              	.LVL10:
 118 000a FFF7FEFF 		bl	EEPROM_1_ReadByte
 119              	.LVL11:
  32:eeprom.c      ****     if(value){
 120              		.loc 1 32 0
 121 000e 6EB1     		cbz	r6, .L6
  33:eeprom.c      ****         if(!(tmp & (1 << bit))){
 122              		.loc 1 33 0
 123 0010 40FA05F3 		asr	r3, r0, r5
 124 0014 13F0010F 		tst	r3, #1
 125 0018 16D1     		bne	.L5
  34:eeprom.c      ****             EEPROM_1_WriteByte(tmp | (1 << bit), address);
 126              		.loc 1 34 0
 127 001a 0123     		movs	r3, #1
 128 001c 03FA05F5 		lsl	r5, r3, r5
 129 0020 2843     		orrs	r0, r0, r5
 130              	.LVL12:
 131 0022 2146     		mov	r1, r4
 132 0024 C0B2     		uxtb	r0, r0
 133 0026 FFF7FEFF 		bl	EEPROM_1_WriteByte
 134              	.LVL13:
 135 002a 70BD     		pop	{r4, r5, r6, pc}
 136              	.LVL14:
 137              	.L6:
ARM GAS  C:\Users\Dell\AppData\Local\Temp\cco4Kole.s 			page 4


  35:eeprom.c      ****         }
  36:eeprom.c      ****     } else {
  37:eeprom.c      ****         if(tmp & (1 << bit)){
 138              		.loc 1 37 0
 139 002c 40FA05F3 		asr	r3, r0, r5
 140 0030 13F0010F 		tst	r3, #1
 141 0034 08D0     		beq	.L5
  38:eeprom.c      ****             EEPROM_1_WriteByte(tmp & ~(1 << bit), address);
 142              		.loc 1 38 0
 143 0036 0123     		movs	r3, #1
 144 0038 03FA05F5 		lsl	r5, r3, r5
 145 003c 20EA0500 		bic	r0, r0, r5
 146              	.LVL15:
 147 0040 2146     		mov	r1, r4
 148 0042 C0B2     		uxtb	r0, r0
 149 0044 FFF7FEFF 		bl	EEPROM_1_WriteByte
 150              	.LVL16:
 151              	.L5:
 152 0048 70BD     		pop	{r4, r5, r6, pc}
 153              		.cfi_endproc
 154              	.LFE65:
 155              		.size	setBit, .-setBit
 156 004a 00BF     		.section	.text.testBit,"ax",%progbits
 157              		.align	2
 158              		.global	testBit
 159              		.thumb
 160              		.thumb_func
 161              		.type	testBit, %function
 162              	testBit:
 163              	.LFB66:
  39:eeprom.c      ****         }
  40:eeprom.c      ****     }
  41:eeprom.c      **** }
  42:eeprom.c      **** 
  43:eeprom.c      **** bool testBit(uint8 bit, uint8 address){
 164              		.loc 1 43 0
 165              		.cfi_startproc
 166              		@ args = 0, pretend = 0, frame = 0
 167              		@ frame_needed = 0, uses_anonymous_args = 0
 168              	.LVL17:
 169 0000 10B5     		push	{r4, lr}
 170              		.cfi_def_cfa_offset 8
 171              		.cfi_offset 4, -8
 172              		.cfi_offset 14, -4
 173 0002 0446     		mov	r4, r0
  44:eeprom.c      ****     uint8 tmp = EEPROM_1_ReadByte(address);
 174              		.loc 1 44 0
 175 0004 0846     		mov	r0, r1
 176              	.LVL18:
 177 0006 FFF7FEFF 		bl	EEPROM_1_ReadByte
 178              	.LVL19:
  45:eeprom.c      ****     return (tmp & (1 << bit));
 179              		.loc 1 45 0
 180 000a 0123     		movs	r3, #1
 181 000c A340     		lsls	r3, r3, r4
 182 000e 1842     		tst	r0, r3
  46:eeprom.c      **** }
ARM GAS  C:\Users\Dell\AppData\Local\Temp\cco4Kole.s 			page 5


 183              		.loc 1 46 0
 184 0010 14BF     		ite	ne
 185 0012 0120     		movne	r0, #1
 186              	.LVL20:
 187 0014 0020     		moveq	r0, #0
 188 0016 10BD     		pop	{r4, pc}
 189              		.cfi_endproc
 190              	.LFE66:
 191              		.size	testBit, .-testBit
 192              		.text
 193              	.Letext0:
 194              		.file 2 "c:\\program files (x86)\\cypress\\psoc creator\\4.4\\psoc creator\\import\\gnu\\arm\\5.4.
 195              		.file 3 "c:\\program files (x86)\\cypress\\psoc creator\\4.4\\psoc creator\\import\\gnu\\arm\\5.4.
 196              		.file 4 "Generated_Source\\PSoC5/cytypes.h"
 197              		.file 5 "Generated_Source\\PSoC5/EEPROM_1.h"
 198              		.file 6 "Generated_Source\\PSoC5/core_cm3.h"