ARM GAS  C:\Users\Dell\AppData\Local\Temp\ccCbdAfu.s 			page 1


   1              		.syntax unified
   2              		.cpu cortex-m3
   3              		.fpu softvfp
   4              		.eabi_attribute 20, 1
   5              		.eabi_attribute 21, 1
   6              		.eabi_attribute 23, 3
   7              		.eabi_attribute 24, 1
   8              		.eabi_attribute 25, 1
   9              		.eabi_attribute 26, 1
  10              		.eabi_attribute 30, 1
  11              		.eabi_attribute 34, 1
  12              		.eabi_attribute 18, 4
  13              		.thumb
  14              		.syntax unified
  15              		.file	"rotation.c"
  16              		.text
  17              	.Ltext0:
  18              		.cfi_sections	.debug_frame
  19              		.section	.text.getRotation,"ax",%progbits
  20              		.align	2
  21              		.global	getRotation
  22              		.thumb
  23              		.thumb_func
  24              		.type	getRotation, %function
  25              	getRotation:
  26              	.LFB63:
  27              		.file 1 "rotation.c"
   1:rotation.c    **** /* ========================================
   2:rotation.c    ****  *
   3:rotation.c    ****  * Copyright YOUR COMPANY, THE YEAR
   4:rotation.c    ****  * All Rights Reserved
   5:rotation.c    ****  * UNPUBLISHED, LICENSED SOFTWARE.
   6:rotation.c    ****  *
   7:rotation.c    ****  * CONFIDENTIAL AND PROPRIETARY INFORMATION
   8:rotation.c    ****  * WHICH IS THE PROPERTY OF your company.
   9:rotation.c    ****  *
  10:rotation.c    ****  * ========================================
  11:rotation.c    **** */
  12:rotation.c    **** #include "rotation.h"
  13:rotation.c    **** #include "project.h"
  14:rotation.c    **** 
  15:rotation.c    **** static ROTATOR_STATE rotator_state;
  16:rotation.c    **** 
  17:rotation.c    **** ROTATOR_STATE getRotation(){
  28              		.loc 1 17 0
  29              		.cfi_startproc
  30              		@ args = 0, pretend = 0, frame = 0
  31              		@ frame_needed = 0, uses_anonymous_args = 0
  32              		@ link register save eliminated.
  33              	.LVL0:
  34 0000 10B4     		push	{r4}
  35              		.cfi_def_cfa_offset 4
  36              		.cfi_offset 4, -4
  37 0002 0446     		mov	r4, r0
  18:rotation.c    ****     return rotator_state;
  38              		.loc 1 18 0
  39 0004 034B     		ldr	r3, .L3
ARM GAS  C:\Users\Dell\AppData\Local\Temp\ccCbdAfu.s 			page 2


  40 0006 0FCB     		ldmia	r3, {r0, r1, r2, r3}
  41              	.LVL1:
  42 0008 84E80F00 		stmia	r4, {r0, r1, r2, r3}
  19:rotation.c    **** }
  43              		.loc 1 19 0
  44 000c 2046     		mov	r0, r4
  45 000e 10BC     		pop	{r4}
  46              		.cfi_restore 4
  47              		.cfi_def_cfa_offset 0
  48              	.LVL2:
  49 0010 7047     		bx	lr
  50              	.L4:
  51 0012 00BF     		.align	2
  52              	.L3:
  53 0014 00000000 		.word	.LANCHOR0
  54              		.cfi_endproc
  55              	.LFE63:
  56              		.size	getRotation, .-getRotation
  57              		.section	.text.setRotation,"ax",%progbits
  58              		.align	2
  59              		.global	setRotation
  60              		.thumb
  61              		.thumb_func
  62              		.type	setRotation, %function
  63              	setRotation:
  64              	.LFB64:
  20:rotation.c    **** 
  21:rotation.c    **** void setRotation(int x, int y){
  65              		.loc 1 21 0
  66              		.cfi_startproc
  67              		@ args = 0, pretend = 0, frame = 0
  68              		@ frame_needed = 0, uses_anonymous_args = 0
  69              		@ link register save eliminated.
  70              	.LVL3:
  22:rotation.c    ****     if(x < 0){x = 0;} else if(x > 4095){x = 4095;}
  71              		.loc 1 22 0
  72 0000 0028     		cmp	r0, #0
  73 0002 03DB     		blt	.L8
  74              		.loc 1 22 0 is_stmt 0 discriminator 2
  75 0004 B0F5805F 		cmp	r0, #4096
  76 0008 02DA     		bge	.L9
  77 000a 03E0     		b	.L6
  78              	.L8:
  79              		.loc 1 22 0
  80 000c 0020     		movs	r0, #0
  81              	.LVL4:
  82 000e 01E0     		b	.L6
  83              	.LVL5:
  84              	.L9:
  85 0010 40F6FF70 		movw	r0, #4095
  86              	.LVL6:
  87              	.L6:
  23:rotation.c    ****     if(y < 0){y = 0;} else if(y > 4095){y = 4095;}
  88              		.loc 1 23 0 is_stmt 1
  89 0014 0029     		cmp	r1, #0
  90 0016 03DB     		blt	.L10
  91              		.loc 1 23 0 is_stmt 0 discriminator 2
ARM GAS  C:\Users\Dell\AppData\Local\Temp\ccCbdAfu.s 			page 3


  92 0018 B1F5805F 		cmp	r1, #4096
  93 001c 02DA     		bge	.L11
  94 001e 03E0     		b	.L7
  95              	.L10:
  96              		.loc 1 23 0
  97 0020 0021     		movs	r1, #0
  98              	.LVL7:
  99 0022 01E0     		b	.L7
 100              	.LVL8:
 101              	.L11:
 102 0024 40F6FF71 		movw	r1, #4095
 103              	.LVL9:
 104              	.L7:
  24:rotation.c    ****     rotator_state.x_des = x;
 105              		.loc 1 24 0 is_stmt 1
 106 0028 014B     		ldr	r3, .L12
 107 002a 1860     		str	r0, [r3]
  25:rotation.c    ****     rotator_state.y_des = y;
 108              		.loc 1 25 0
 109 002c 5960     		str	r1, [r3, #4]
 110 002e 7047     		bx	lr
 111              	.L13:
 112              		.align	2
 113              	.L12:
 114 0030 00000000 		.word	.LANCHOR0
 115              		.cfi_endproc
 116              	.LFE64:
 117              		.size	setRotation, .-setRotation
 118              		.section	.text.refreshRotation,"ax",%progbits
 119              		.align	2
 120              		.global	refreshRotation
 121              		.thumb
 122              		.thumb_func
 123              		.type	refreshRotation, %function
 124              	refreshRotation:
 125              	.LFB65:
  26:rotation.c    **** }
  27:rotation.c    **** 
  28:rotation.c    **** void refreshRotation(ROTATOR_STATE* rotator_state){
 126              		.loc 1 28 0
 127              		.cfi_startproc
 128              		@ args = 0, pretend = 0, frame = 0
 129              		@ frame_needed = 0, uses_anonymous_args = 0
 130              	.LVL10:
 131 0000 38B5     		push	{r3, r4, r5, lr}
 132              		.cfi_def_cfa_offset 16
 133              		.cfi_offset 3, -16
 134              		.cfi_offset 4, -12
 135              		.cfi_offset 5, -8
 136              		.cfi_offset 14, -4
 137 0002 0446     		mov	r4, r0
 138              	.LVL11:
  29:rotation.c    ****     uint8 buf[2];
  30:rotation.c    ****     uint8 status = 0;
  31:rotation.c    ****     
  32:rotation.c    ****     //X
  33:rotation.c    ****     I2C_X_MasterClearStatus();
ARM GAS  C:\Users\Dell\AppData\Local\Temp\ccCbdAfu.s 			page 4


 139              		.loc 1 33 0
 140 0004 FFF7FEFF 		bl	I2C_X_MasterClearStatus
 141              	.LVL12:
  34:rotation.c    ****     status = I2C_X_MasterSendStart(ENCODER_ADDRESS, 0);
 142              		.loc 1 34 0
 143 0008 0021     		movs	r1, #0
 144 000a 3620     		movs	r0, #54
 145 000c FFF7FEFF 		bl	I2C_X_MasterSendStart
 146              	.LVL13:
  35:rotation.c    ****     if(I2C_X_MSTR_NO_ERROR == status) /* Check if transfer completed without errors */
 147              		.loc 1 35 0
 148 0010 80B9     		cbnz	r0, .L15
  36:rotation.c    ****     {
  37:rotation.c    ****         /* Read array of 5 bytes */
  38:rotation.c    ****         I2C_X_MasterWriteByte(ENCODER_POS_REG);
 149              		.loc 1 38 0
 150 0012 0E20     		movs	r0, #14
 151              	.LVL14:
 152 0014 FFF7FEFF 		bl	I2C_X_MasterWriteByte
 153              	.LVL15:
  39:rotation.c    ****         I2C_X_MasterSendRestart(ENCODER_ADDRESS, 1);
 154              		.loc 1 39 0
 155 0018 0121     		movs	r1, #1
 156 001a 3620     		movs	r0, #54
 157 001c FFF7FEFF 		bl	I2C_X_MasterSendRestart
 158              	.LVL16:
  40:rotation.c    ****         buf[0] = I2C_X_MasterReadByte(I2C_X_ACK_DATA);
 159              		.loc 1 40 0
 160 0020 0120     		movs	r0, #1
 161 0022 FFF7FEFF 		bl	I2C_X_MasterReadByte
 162              	.LVL17:
 163 0026 0546     		mov	r5, r0
  41:rotation.c    ****         buf[1] = I2C_X_MasterReadByte(I2C_X_NAK_DATA);
 164              		.loc 1 41 0
 165 0028 0020     		movs	r0, #0
 166 002a FFF7FEFF 		bl	I2C_X_MasterReadByte
 167              	.LVL18:
  42:rotation.c    ****                 
  43:rotation.c    ****         rotator_state->x_act = ((buf[0])<<8) + (buf[1]);
 168              		.loc 1 43 0
 169 002e 00EB0520 		add	r0, r0, r5, lsl #8
 170 0032 A060     		str	r0, [r4, #8]
 171              	.L15:
  44:rotation.c    ****     }
  45:rotation.c    ****     I2C_X_MasterSendStop(); /* Send Stop */
 172              		.loc 1 45 0
 173 0034 FFF7FEFF 		bl	I2C_X_MasterSendStop
 174              	.LVL19:
  46:rotation.c    ****     
  47:rotation.c    ****     //Y
  48:rotation.c    ****     I2C_Y_MasterClearStatus();
 175              		.loc 1 48 0
 176 0038 FFF7FEFF 		bl	I2C_Y_MasterClearStatus
 177              	.LVL20:
  49:rotation.c    ****     status = I2C_Y_MasterSendStart(ENCODER_ADDRESS, 0);
 178              		.loc 1 49 0
 179 003c 0021     		movs	r1, #0
ARM GAS  C:\Users\Dell\AppData\Local\Temp\ccCbdAfu.s 			page 5


 180 003e 3620     		movs	r0, #54
 181 0040 FFF7FEFF 		bl	I2C_Y_MasterSendStart
 182              	.LVL21:
  50:rotation.c    ****     if(I2C_Y_MSTR_NO_ERROR == status) /* Check if transfer completed without errors */
 183              		.loc 1 50 0
 184 0044 80B9     		cbnz	r0, .L16
  51:rotation.c    ****     {
  52:rotation.c    ****         /* Read array of 5 bytes */
  53:rotation.c    ****         I2C_Y_MasterWriteByte(ENCODER_POS_REG);
 185              		.loc 1 53 0
 186 0046 0E20     		movs	r0, #14
 187              	.LVL22:
 188 0048 FFF7FEFF 		bl	I2C_Y_MasterWriteByte
 189              	.LVL23:
  54:rotation.c    ****         I2C_Y_MasterSendRestart(ENCODER_ADDRESS, 1);
 190              		.loc 1 54 0
 191 004c 0121     		movs	r1, #1
 192 004e 3620     		movs	r0, #54
 193 0050 FFF7FEFF 		bl	I2C_Y_MasterSendRestart
 194              	.LVL24:
  55:rotation.c    ****         buf[0] = I2C_Y_MasterReadByte(I2C_X_ACK_DATA);
 195              		.loc 1 55 0
 196 0054 0120     		movs	r0, #1
 197 0056 FFF7FEFF 		bl	I2C_Y_MasterReadByte
 198              	.LVL25:
 199 005a 0546     		mov	r5, r0
  56:rotation.c    ****         buf[1] = I2C_Y_MasterReadByte(I2C_X_NAK_DATA);
 200              		.loc 1 56 0
 201 005c 0020     		movs	r0, #0
 202 005e FFF7FEFF 		bl	I2C_Y_MasterReadByte
 203              	.LVL26:
  57:rotation.c    ****                 
  58:rotation.c    ****         rotator_state->y_act = ((buf[0])<<8) + (buf[1]);
 204              		.loc 1 58 0
 205 0062 00EB0520 		add	r0, r0, r5, lsl #8
 206 0066 E060     		str	r0, [r4, #12]
 207              	.L16:
  59:rotation.c    ****     }
  60:rotation.c    ****     I2C_Y_MasterSendStop(); /* Send Stop */
 208              		.loc 1 60 0
 209 0068 FFF7FEFF 		bl	I2C_Y_MasterSendStop
 210              	.LVL27:
 211 006c 38BD     		pop	{r3, r4, r5, pc}
 212              		.cfi_endproc
 213              	.LFE65:
 214              		.size	refreshRotation, .-refreshRotation
 215 006e 00BF     		.bss
 216              		.align	2
 217              		.set	.LANCHOR0,. + 0
 218              		.type	rotator_state, %object
 219              		.size	rotator_state, 16
 220              	rotator_state:
 221 0000 00000000 		.space	16
 221      00000000 
 221      00000000 
 221      00000000 
 222              		.text
ARM GAS  C:\Users\Dell\AppData\Local\Temp\ccCbdAfu.s 			page 6


 223              	.Letext0:
 224              		.file 2 "rotation.h"
 225              		.file 3 "c:\\program files (x86)\\cypress\\psoc creator\\4.4\\psoc creator\\import\\gnu\\arm\\5.4.
 226              		.file 4 "c:\\program files (x86)\\cypress\\psoc creator\\4.4\\psoc creator\\import\\gnu\\arm\\5.4.
 227              		.file 5 "Generated_Source\\PSoC5/cytypes.h"
 228              		.file 6 "Generated_Source\\PSoC5/I2C_X.h"
 229              		.file 7 "Generated_Source\\PSoC5/I2C_Y.h"
 230              		.file 8 "Generated_Source\\PSoC5/core_cm3.h"