ARM GAS  C:\Users\Dell\AppData\Local\Temp\ccjE71v9.s 			page 1


   1              		.syntax unified
   2              		.cpu cortex-m3
   3              		.fpu softvfp
   4              		.eabi_attribute 20, 1
   5              		.eabi_attribute 21, 1
   6              		.eabi_attribute 23, 3
   7              		.eabi_attribute 24, 1
   8              		.eabi_attribute 25, 1
   9              		.eabi_attribute 26, 1
  10              		.eabi_attribute 30, 1
  11              		.eabi_attribute 34, 1
  12              		.eabi_attribute 18, 4
  13              		.thumb
  14              		.syntax unified
  15              		.file	"RotatorHorizon.c"
  16              		.text
  17              	.Ltext0:
  18              		.cfi_sections	.debug_frame
  19              		.section	.text.Horizon_Init,"ax",%progbits
  20              		.align	2
  21              		.global	Horizon_Init
  22              		.thumb
  23              		.thumb_func
  24              		.type	Horizon_Init, %function
  25              	Horizon_Init:
  26              	.LFB64:
  27              		.file 1 "RotatorHorizon.c"
   1:RotatorHorizon.c **** /* ========================================
   2:RotatorHorizon.c ****  *
   3:RotatorHorizon.c ****  * Copyright YOUR COMPANY, THE YEAR
   4:RotatorHorizon.c ****  * All Rights Reserved
   5:RotatorHorizon.c ****  * UNPUBLISHED, LICENSED SOFTWARE.
   6:RotatorHorizon.c ****  *
   7:RotatorHorizon.c ****  * CONFIDENTIAL AND PROPRIETARY INFORMATION
   8:RotatorHorizon.c ****  * WHICH IS THE PROPERTY OF your company.
   9:RotatorHorizon.c ****  *
  10:RotatorHorizon.c ****  * ========================================
  11:RotatorHorizon.c **** */
  12:RotatorHorizon.c **** #include <project.h>
  13:RotatorHorizon.c **** #include "RotatorHorizon.h"
  14:RotatorHorizon.c **** #include "ssd1306.h"
  15:RotatorHorizon.c **** #include <stdio.h>
  16:RotatorHorizon.c **** 
  17:RotatorHorizon.c **** #define DISPLAY_ADDRESS 0x3C // 011110+SA0+RW - 0x3C or 0x3D	
  18:RotatorHorizon.c **** 
  19:RotatorHorizon.c **** void Horizon_Init(){
  28              		.loc 1 19 0
  29              		.cfi_startproc
  30              		@ args = 0, pretend = 0, frame = 0
  31              		@ frame_needed = 0, uses_anonymous_args = 0
  32 0000 08B5     		push	{r3, lr}
  33              		.cfi_def_cfa_offset 8
  34              		.cfi_offset 3, -8
  35              		.cfi_offset 14, -4
  20:RotatorHorizon.c ****     display_init(DISPLAY_ADDRESS);
  36              		.loc 1 20 0
  37 0002 3C20     		movs	r0, #60
ARM GAS  C:\Users\Dell\AppData\Local\Temp\ccjE71v9.s 			page 2


  38 0004 FFF7FEFF 		bl	display_init
  39              	.LVL0:
  21:RotatorHorizon.c ****     display_clear();    
  40              		.loc 1 21 0
  41 0008 FFF7FEFF 		bl	display_clear
  42              	.LVL1:
  22:RotatorHorizon.c ****     display_update(); 
  43              		.loc 1 22 0
  44 000c FFF7FEFF 		bl	display_update
  45              	.LVL2:
  46 0010 08BD     		pop	{r3, pc}
  47              		.cfi_endproc
  48              	.LFE64:
  49              		.size	Horizon_Init, .-Horizon_Init
  50              		.global	__aeabi_i2f
  51              		.global	__aeabi_fdiv
  52              		.global	__aeabi_f2d
  53 0012 00BF     		.section	.text.Horizon_Render,"ax",%progbits
  54              		.align	2
  55              		.global	Horizon_Render
  56              		.thumb
  57              		.thumb_func
  58              		.type	Horizon_Render, %function
  59              	Horizon_Render:
  60              	.LFB65:
  23:RotatorHorizon.c **** }
  24:RotatorHorizon.c **** 
  25:RotatorHorizon.c **** void Horizon_Render(){
  61              		.loc 1 25 0
  62              		.cfi_startproc
  63              		@ args = 0, pretend = 0, frame = 48
  64              		@ frame_needed = 0, uses_anonymous_args = 0
  65 0000 70B5     		push	{r4, r5, r6, lr}
  66              		.cfi_def_cfa_offset 16
  67              		.cfi_offset 4, -16
  68              		.cfi_offset 5, -12
  69              		.cfi_offset 6, -8
  70              		.cfi_offset 14, -4
  71 0002 8EB0     		sub	sp, sp, #56
  72              		.cfi_def_cfa_offset 72
  26:RotatorHorizon.c ****     ROTATOR_STATE rotator_state = getRotation();
  73              		.loc 1 26 0
  74 0004 0AA8     		add	r0, sp, #40
  75 0006 FFF7FEFF 		bl	getRotation
  76              	.LVL3:
  27:RotatorHorizon.c ****     
  28:RotatorHorizon.c ****     char str[32];
  29:RotatorHorizon.c ****     display_clear();    
  77              		.loc 1 29 0
  78 000a FFF7FEFF 		bl	display_clear
  79              	.LVL4:
  30:RotatorHorizon.c ****         
  31:RotatorHorizon.c ****     gfx_setTextSize(1);
  80              		.loc 1 31 0
  81 000e 0120     		movs	r0, #1
  82 0010 FFF7FEFF 		bl	gfx_setTextSize
  83              	.LVL5:
ARM GAS  C:\Users\Dell\AppData\Local\Temp\ccjE71v9.s 			page 3


  32:RotatorHorizon.c ****     gfx_setTextColor(WHITE);
  84              		.loc 1 32 0
  85 0014 0120     		movs	r0, #1
  86 0016 FFF7FEFF 		bl	gfx_setTextColor
  87              	.LVL6:
  33:RotatorHorizon.c ****     gfx_setCursor(0,0);
  88              		.loc 1 33 0
  89 001a 0021     		movs	r1, #0
  90 001c 0846     		mov	r0, r1
  91 001e FFF7FEFF 		bl	gfx_setCursor
  92              	.LVL7:
  34:RotatorHorizon.c **** 
  35:RotatorHorizon.c ****     // text display
  36:RotatorHorizon.c ****     gfx_setTextSize(1);
  93              		.loc 1 36 0
  94 0022 0120     		movs	r0, #1
  95 0024 FFF7FEFF 		bl	gfx_setTextSize
  96              	.LVL8:
  37:RotatorHorizon.c ****     gfx_setTextColor(WHITE);
  97              		.loc 1 37 0
  98 0028 0120     		movs	r0, #1
  99 002a FFF7FEFF 		bl	gfx_setTextColor
 100              	.LVL9:
  38:RotatorHorizon.c ****     gfx_setCursor(0,0);
 101              		.loc 1 38 0
 102 002e 0021     		movs	r1, #0
 103 0030 0846     		mov	r0, r1
 104 0032 FFF7FEFF 		bl	gfx_setCursor
 105              	.LVL10:
  39:RotatorHorizon.c ****     sprintf(str, "X : %3.2f : %3.2f", AS5600_TO_ANGULAR(rotator_state.x_des), AS5600_TO_ANGULAR(rot
 106              		.loc 1 39 0
 107 0036 0A98     		ldr	r0, [sp, #40]
 108 0038 FFF7FEFF 		bl	__aeabi_i2f
 109              	.LVL11:
 110 003c 2449     		ldr	r1, .L5
 111 003e FFF7FEFF 		bl	__aeabi_fdiv
 112              	.LVL12:
 113 0042 0446     		mov	r4, r0
 114 0044 0C98     		ldr	r0, [sp, #48]
 115 0046 FFF7FEFF 		bl	__aeabi_i2f
 116              	.LVL13:
 117 004a 2149     		ldr	r1, .L5
 118 004c FFF7FEFF 		bl	__aeabi_fdiv
 119              	.LVL14:
 120 0050 0646     		mov	r6, r0
 121 0052 2046     		mov	r0, r4
 122 0054 FFF7FEFF 		bl	__aeabi_f2d
 123              	.LVL15:
 124 0058 0446     		mov	r4, r0
 125 005a 0D46     		mov	r5, r1
 126 005c 3046     		mov	r0, r6
 127 005e FFF7FEFF 		bl	__aeabi_f2d
 128              	.LVL16:
 129 0062 CDE90001 		strd	r0, [sp]
 130 0066 2246     		mov	r2, r4
 131 0068 2B46     		mov	r3, r5
 132 006a 1A49     		ldr	r1, .L5+4
ARM GAS  C:\Users\Dell\AppData\Local\Temp\ccjE71v9.s 			page 4


 133 006c 02A8     		add	r0, sp, #8
 134 006e FFF7FEFF 		bl	sprintf
 135              	.LVL17:
  40:RotatorHorizon.c ****     gfx_println(str); 
 136              		.loc 1 40 0
 137 0072 02A8     		add	r0, sp, #8
 138 0074 FFF7FEFF 		bl	gfx_println
 139              	.LVL18:
  41:RotatorHorizon.c ****     gfx_setTextColor(WHITE);
 140              		.loc 1 41 0
 141 0078 0120     		movs	r0, #1
 142 007a FFF7FEFF 		bl	gfx_setTextColor
 143              	.LVL19:
  42:RotatorHorizon.c ****     sprintf(str, "Y : %3.2f : %3.2f", AS5600_TO_ANGULAR(rotator_state.y_des), AS5600_TO_ANGULAR(rot
 144              		.loc 1 42 0
 145 007e 0B98     		ldr	r0, [sp, #44]
 146 0080 FFF7FEFF 		bl	__aeabi_i2f
 147              	.LVL20:
 148 0084 1249     		ldr	r1, .L5
 149 0086 FFF7FEFF 		bl	__aeabi_fdiv
 150              	.LVL21:
 151 008a 0446     		mov	r4, r0
 152 008c 0D98     		ldr	r0, [sp, #52]
 153 008e FFF7FEFF 		bl	__aeabi_i2f
 154              	.LVL22:
 155 0092 0F49     		ldr	r1, .L5
 156 0094 FFF7FEFF 		bl	__aeabi_fdiv
 157              	.LVL23:
 158 0098 0646     		mov	r6, r0
 159 009a 2046     		mov	r0, r4
 160 009c FFF7FEFF 		bl	__aeabi_f2d
 161              	.LVL24:
 162 00a0 0446     		mov	r4, r0
 163 00a2 0D46     		mov	r5, r1
 164 00a4 3046     		mov	r0, r6
 165 00a6 FFF7FEFF 		bl	__aeabi_f2d
 166              	.LVL25:
 167 00aa CDE90001 		strd	r0, [sp]
 168 00ae 2246     		mov	r2, r4
 169 00b0 2B46     		mov	r3, r5
 170 00b2 0949     		ldr	r1, .L5+8
 171 00b4 02A8     		add	r0, sp, #8
 172 00b6 FFF7FEFF 		bl	sprintf
 173              	.LVL26:
  43:RotatorHorizon.c ****     gfx_setCursor(0,8);
 174              		.loc 1 43 0
 175 00ba 0821     		movs	r1, #8
 176 00bc 0020     		movs	r0, #0
 177 00be FFF7FEFF 		bl	gfx_setCursor
 178              	.LVL27:
  44:RotatorHorizon.c ****     gfx_println(str); 
 179              		.loc 1 44 0
 180 00c2 02A8     		add	r0, sp, #8
 181 00c4 FFF7FEFF 		bl	gfx_println
 182              	.LVL28:
  45:RotatorHorizon.c ****     display_update();
 183              		.loc 1 45 0
ARM GAS  C:\Users\Dell\AppData\Local\Temp\ccjE71v9.s 			page 5


 184 00c8 FFF7FEFF 		bl	display_update
 185              	.LVL29:
  46:RotatorHorizon.c ****     
  47:RotatorHorizon.c **** }
 186              		.loc 1 47 0
 187 00cc 0EB0     		add	sp, sp, #56
 188              		.cfi_def_cfa_offset 16
 189              		@ sp needed
 190 00ce 70BD     		pop	{r4, r5, r6, pc}
 191              	.L6:
 192              		.align	2
 193              	.L5:
 194 00d0 610B3641 		.word	1094060897
 195 00d4 00000000 		.word	.LC0
 196 00d8 14000000 		.word	.LC1
 197              		.cfi_endproc
 198              	.LFE65:
 199              		.size	Horizon_Render, .-Horizon_Render
 200              		.section	.rodata.str1.4,"aMS",%progbits,1
 201              		.align	2
 202              	.LC0:
 203 0000 58203A20 		.ascii	"X : %3.2f : %3.2f\000"
 203      25332E32 
 203      66203A20 
 203      25332E32 
 203      6600
 204 0012 0000     		.space	2
 205              	.LC1:
 206 0014 59203A20 		.ascii	"Y : %3.2f : %3.2f\000"
 206      25332E32 
 206      66203A20 
 206      25332E32 
 206      6600
 207              		.text
 208              	.Letext0:
 209              		.file 2 "c:\\program files (x86)\\cypress\\psoc creator\\4.4\\psoc creator\\import\\gnu\\arm\\5.4.
 210              		.file 3 "c:\\program files (x86)\\cypress\\psoc creator\\4.4\\psoc creator\\import\\gnu\\arm\\5.4.
 211              		.file 4 "rotation.h"
 212              		.file 5 "ssd1306.h"
 213              		.file 6 "c:\\program files (x86)\\cypress\\psoc creator\\4.4\\psoc creator\\import\\gnu\\arm\\5.4.
 214              		.file 7 "Generated_Source\\PSoC5/core_cm3.h"